 DUI_ShellcodeX

 Timestamp is 5dce4ce1 (Fri Nov 15 14:59:45 2019)

 Preferred load address is 0000000140000000

 Start         Length     Name                   Class
 0001:00000000 00015d70H .text$mn                CODE
 0001:00015d70 00000020H .text$mn$00             CODE
 0001:00015d90 00000600H .text$x                 CODE
 0002:00000000 00000540H .idata$5                DATA
 0002:00000540 00000010H .00cfg                  DATA
 0002:00000550 00000008H .CRT$XCA                DATA
 0002:00000558 00000008H .CRT$XCAA               DATA
 0002:00000560 00000008H .CRT$XCZ                DATA
 0002:00000568 00000008H .CRT$XIA                DATA
 0002:00000570 00000008H .CRT$XIAA               DATA
 0002:00000578 00000008H .CRT$XIAC               DATA
 0002:00000580 00000018H .CRT$XIC                DATA
 0002:00000598 00000008H .CRT$XIZ                DATA
 0002:000005a0 00000008H .CRT$XPA                DATA
 0002:000005a8 00000010H .CRT$XPX                DATA
 0002:000005b8 00000008H .CRT$XPXA               DATA
 0002:000005c0 00000008H .CRT$XPZ                DATA
 0002:000005c8 00000008H .CRT$XTA                DATA
 0002:000005d0 00000010H .CRT$XTZ                DATA
 0002:000005d8 00000000H .gfids$y                DATA
 0002:000005e0 00008bb0H .rdata                  DATA
 0002:00009190 000008dcH .rdata$r                DATA
 0002:00009a6c 0000033cH .rdata$zzzdbg           DATA
 0002:00009da8 00000008H .rtc$IAA                DATA
 0002:00009db0 00000008H .rtc$IZZ                DATA
 0002:00009db8 00000008H .rtc$TAA                DATA
 0002:00009dc0 00000010H .rtc$TZZ                DATA
 0002:00009dd0 00001668H .xdata                  DATA
 0002:0000b438 0000023cH .xdata$x                DATA
 0002:0000b674 00000000H .edata                  DATA
 0002:0000b674 00000078H .idata$2                DATA
 0002:0000b6ec 00000014H .idata$3                DATA
 0002:0000b700 00000540H .idata$4                DATA
 0002:0000bc40 0000142aH .idata$6                DATA
 0003:00000000 00001208H .data                   DATA
 0003:00001208 00000328H .data$r                 DATA
 0003:00001530 000012f8H .bss                    DATA
 0004:00000000 00001440H .pdata                  DATA
 0005:00000000 000002c0H .rsrc$01                DATA
 0005:000002c0 00003b90H .rsrc$02                DATA

  Address         Publics by Value              Rva+Base               Lib:Object

 0000:00000000       __guard_fids_count         0000000000000000     <absolute>
 0000:00000000       __guard_longjmp_count      0000000000000000     <absolute>
 0000:00000000       __hybrid_code_map          0000000000000000     <absolute>
 0000:00000000       __guard_iat_count          0000000000000000     <absolute>
 0000:00000000       __guard_longjmp_table      0000000000000000     <absolute>
 0000:00000000       __volatile_metadata        0000000000000000     <absolute>
 0000:00000000       __guard_iat_table          0000000000000000     <absolute>
 0000:00000000       __hybrid_code_map_count    0000000000000000     <absolute>
 0000:00000000       __enclave_config           0000000000000000     <absolute>
 0000:00000000       ___safe_se_handler_count   0000000000000000     <absolute>
 0000:00000000       ___safe_se_handler_table   0000000000000000     <absolute>
 0000:00000000       __guard_fids_table         0000000000000000     <absolute>
 0000:00000000       __dynamic_value_reloc_table 0000000000000000     <absolute>
 0000:00000000       __hybrid_auxiliary_iat     0000000000000000     <absolute>
 0000:00000100       __guard_flags              0000000000000100     <absolute>
 0000:00000000       __ImageBase                0000000140000000     <linker-defined>
 0001:00000000       Shellcode                  0000000140001000 f   scx.obj
 0001:00000078       scx_GetProcAddressWithHash 0000000140001078 f   GetProcAddressWithHash.obj
 0001:0000026c       scx_MsgBox                 000000014000126c f   scx.obj
 0001:0000030c       scx_GetCPUPtr              000000014000130c f   ScxGadgets.obj
 0001:00000320       scx_caller                 0000000140001320 f   ScxGadgets.obj
 0001:00000328       ?InitWindow@WindowImplBase@DuiLib@@UEAAXXZ 0000000140001328 f   MainWnd.obj
 0001:00000328       _initialize_invalid_parameter_handler 0000000140001328 f   LIBCMT:invalid_parameter_handler.obj
 0001:00000328       _guard_check_icall_nop     0000000140001328 f   LIBCMT:guard_support.obj
 0001:00000328       _initialize_denormal_control 0000000140001328 f   LIBCMT:denormal_control.obj
 0001:00000328       EndShellcode               0000000140001328 f   scx.obj
 0001:0000032c       wWinMain                   000000014000132c f   DUI_ShellcodeX.obj
 0001:00000390       ?GetClassStyle@CMainWnd@@UEBAIXZ 0000000140001390 f i MainWnd.obj
 0001:000003a4       ??0CMainWnd@@QEAA@XZ       00000001400013a4 f   MainWnd.obj
 0001:000004ac       ??_GCMainWnd@@UEAAPEAXI@Z  00000001400014ac f i MainWnd.obj
 0001:000004ac       ??_ECMainWnd@@UEAAPEAXI@Z  00000001400014ac f i * CIL library *:* CIL module *
 0001:00000528       ?GetWindowClassName@CMainWnd@@UEBAPEB_WXZ 0000000140001528 f   MainWnd.obj
 0001:00000530       ?GetSkinFile@CMainWnd@@UEAA?AVCDuiString@DuiLib@@XZ 0000000140001530 f   MainWnd.obj
 0001:00000558       ?GetSkinFolder@CMainWnd@@UEAA?AVCDuiString@DuiLib@@XZ 0000000140001558 f   MainWnd.obj
 0001:00000580       ?InitWindow@CMainWnd@@UEAAXXZ 0000000140001580 f   MainWnd.obj
 0001:00000a88       ?Notify@CMainWnd@@UEAAXAEAUtagTNotifyUI@DuiLib@@@Z 0000000140001a88 f   MainWnd.obj
 0001:00000b60       ?OnClick@CMainWnd@@UEAAXAEAUtagTNotifyUI@DuiLib@@@Z 0000000140001b60 f   MainWnd.obj
 0001:00000eb4       ?HandleCustomMessage@CMainWnd@@UEAA_JI_K_JAEAH@Z 0000000140001eb4 f   MainWnd.obj
 0001:00000fb4       ?OnFinalMessage@CMainWnd@@EEAAXPEAUHWND__@@@Z 0000000140001fb4 f   MainWnd.obj
 0001:00001134       ?Copy2Clipboard@CMainWnd@@AEAAXPEAEKK@Z 0000000140002134 f   MainWnd.obj
 0001:000011b4       ?OnSelectChanged@CMainWnd@@AEAAXAEAUtagTNotifyUI@DuiLib@@@Z 00000001400021b4 f   MainWnd.obj
 0001:00001294       ?OnCalcWinApiHash@CMainWnd@@AEAAXXZ 0000000140002294 f   MainWnd.obj
 0001:0000142c       ?OnWideStr2DwordArry@CMainWnd@@AEAAXXZ 000000014000242c f   MainWnd.obj
 0001:000015e4       ?OnMultStr2DowrdArry@CMainWnd@@AEAAXXZ 00000001400025e4 f   MainWnd.obj
 0001:000017f4       ?OnStringCopyDest@CMainWnd@@AEAAXXZ 00000001400027f4 f   MainWnd.obj
 0001:00001994       ?OnApiCopyHash@CMainWnd@@AEAAXXZ 0000000140002994 f   MainWnd.obj
 0001:00001af4       ?OnShellcodeInjectExec@CMainWnd@@AEAAXXZ 0000000140002af4 f   MainWnd.obj
 0001:00001c8c       ?OnShellcodeDump@CMainWnd@@AEAAXXZ 0000000140002c8c f   MainWnd.obj
 0001:00001d8c       ?OnShellcodeLoadMapFunsPath@CMainWnd@@AEAAXXZ 0000000140002d8c f   MainWnd.obj
 0001:00001e5c       ?OnShellcodeReadMap@CMainWnd@@AEAAXXZ 0000000140002e5c f   MainWnd.obj
 0001:00002118       ?OnShellcodeRandomFuns@CMainWnd@@AEAAXXZ 0000000140003118 f   MainWnd.obj
 0001:00002358       ?OnShellcodeWriteFuns@CMainWnd@@AEAAXXZ 0000000140003358 f   MainWnd.obj
 0001:000025c8       ?OnTestExecSc@CMainWnd@@AEAAXXZ 00000001400035c8 f   MainWnd.obj
 0001:00002754       sprintf_s                  0000000140003754 f i MainWnd.obj
 0001:000027a8       __local_stdio_printf_options 00000001400037a8 f i MainWnd.obj
 0001:000027b0       _snwprintf_s               00000001400037b0 f i MainWnd.obj
 0001:0000280c       ??1WindowImplBase@DuiLib@@UEAA@XZ 000000014000380c f i MainWnd.obj
 0001:00002868       ??1CNotifyPump@DuiLib@@QEAA@XZ 0000000140003868 f i MainWnd.obj
 0001:00002874       ??_EWindowImplBase@DuiLib@@UEAAPEAXI@Z 0000000140003874 f i * CIL library *:* CIL module *
 0001:00002874       ??_GWindowImplBase@DuiLib@@UEAAPEAXI@Z 0000000140003874 f i MainWnd.obj
 0001:000028f0       ?ReadBufferFromFile@@YAPEAEPEA_WPEAK@Z 00000001400038f0 f   SCXHelper.obj
 0001:000029b4       ?BrowseFile@@YAHPEA_W0@Z   00000001400039b4 f   SCXHelper.obj
 0001:00002a07       ?GetClassStyle@WindowImplBase@DuiLib@@UEBAIXZ 0000000140003a07 f   DuiLib:DuiLib.dll
 0001:00002a0d       ?CreateControl@WindowImplBase@DuiLib@@UEAAPEAVCControlUI@2@PEB_W@Z 0000000140003a0d f   DuiLib:DuiLib.dll
 0001:00002a13       ?MessageHandler@WindowImplBase@DuiLib@@UEAA_JI_K_JAEA_N@Z 0000000140003a13 f   DuiLib:DuiLib.dll
 0001:00002a19       ?Notify@WindowImplBase@DuiLib@@UEAAXAEAUtagTNotifyUI@2@@Z 0000000140003a19 f   DuiLib:DuiLib.dll
 0001:00002a1f       ?GetMessageMap@WindowImplBase@DuiLib@@MEBAPEBUDUI_MSGMAP@2@XZ 0000000140003a1f f   DuiLib:DuiLib.dll
 0001:00002a25       ?GetStyle@WindowImplBase@DuiLib@@UEAAJXZ 0000000140003a25 f   DuiLib:DuiLib.dll
 0001:00002a2b       ?HandleCustomMessage@WindowImplBase@DuiLib@@UEAA_JI_K_JAEAH@Z 0000000140003a2b f   DuiLib:DuiLib.dll
 0001:00002a31       ?OnMouseMove@WindowImplBase@DuiLib@@UEAA_JI_K_JAEAH@Z 0000000140003a31 f   DuiLib:DuiLib.dll
 0001:00002a37       ?OnLButtonUp@WindowImplBase@DuiLib@@UEAA_JI_K_JAEAH@Z 0000000140003a37 f   DuiLib:DuiLib.dll
 0001:00002a3d       ?OnLButtonDown@WindowImplBase@DuiLib@@UEAA_JI_K_JAEAH@Z 0000000140003a3d f   DuiLib:DuiLib.dll
 0001:00002a43       ?OnSetFocus@WindowImplBase@DuiLib@@UEAA_JI_K_JAEAH@Z 0000000140003a43 f   DuiLib:DuiLib.dll
 0001:00002a49       ?OnKillFocus@WindowImplBase@DuiLib@@UEAA_JI_K_JAEAH@Z 0000000140003a49 f   DuiLib:DuiLib.dll
 0001:00002a4f       ?OnKeyDown@WindowImplBase@DuiLib@@UEAA_JI_K_JAEAH@Z 0000000140003a4f f   DuiLib:DuiLib.dll
 0001:00002a55       ?OnCreate@WindowImplBase@DuiLib@@UEAA_JI_K_JAEAH@Z 0000000140003a55 f   DuiLib:DuiLib.dll
 0001:00002a5b       ?OnSysCommand@WindowImplBase@DuiLib@@UEAA_JI_K_JAEAH@Z 0000000140003a5b f   DuiLib:DuiLib.dll
 0001:00002a61       ?OnChar@WindowImplBase@DuiLib@@UEAA_JI_K_JAEAH@Z 0000000140003a61 f   DuiLib:DuiLib.dll
 0001:00002a67       ?OnSize@WindowImplBase@DuiLib@@UEAA_JI_K_JAEAH@Z 0000000140003a67 f   DuiLib:DuiLib.dll
 0001:00002a6d       ?OnMouseHover@WindowImplBase@DuiLib@@UEAA_JI_K_JAEAH@Z 0000000140003a6d f   DuiLib:DuiLib.dll
 0001:00002a73       ?OnMouseWheel@WindowImplBase@DuiLib@@UEAA_JI_K_JAEAH@Z 0000000140003a73 f   DuiLib:DuiLib.dll
 0001:00002a79       ?OnGetMinMaxInfo@WindowImplBase@DuiLib@@UEAA_JI_K_JAEAH@Z 0000000140003a79 f   DuiLib:DuiLib.dll
 0001:00002a7f       ?OnNcHitTest@WindowImplBase@DuiLib@@UEAA_JI_K_JAEAH@Z 0000000140003a7f f   DuiLib:DuiLib.dll
 0001:00002a85       ?OnNcPaint@WindowImplBase@DuiLib@@UEAA_JI_K_JAEAH@Z 0000000140003a85 f   DuiLib:DuiLib.dll
 0001:00002a8b       ?OnNcCalcSize@WindowImplBase@DuiLib@@UEAA_JI_K_JAEAH@Z 0000000140003a8b f   DuiLib:DuiLib.dll
 0001:00002a91       ?OnNcActivate@WindowImplBase@DuiLib@@UEAA_JI_K_JAEAH@Z 0000000140003a91 f   DuiLib:DuiLib.dll
 0001:00002a97       ?OnDestroy@WindowImplBase@DuiLib@@UEAA_JI_K_JAEAH@Z 0000000140003a97 f   DuiLib:DuiLib.dll
 0001:00002a9d       ?OnClose@WindowImplBase@DuiLib@@UEAA_JI_K_JAEAH@Z 0000000140003a9d f   DuiLib:DuiLib.dll
 0001:00002aa3       ?GetResourceID@WindowImplBase@DuiLib@@UEBAPEB_WXZ 0000000140003aa3 f   DuiLib:DuiLib.dll
 0001:00002aa9       ?GetZIPFileName@WindowImplBase@DuiLib@@UEBA?AVCDuiString@2@XZ 0000000140003aa9 f   DuiLib:DuiLib.dll
 0001:00002aaf       ?GetResourceType@WindowImplBase@DuiLib@@UEBA?AW4UILIB_RESOURCETYPE@2@XZ 0000000140003aaf f   DuiLib:DuiLib.dll
 0001:00002ab5       ?ResponseDefaultKeyEvent@WindowImplBase@DuiLib@@MEAA_J_K@Z 0000000140003ab5 f   DuiLib:DuiLib.dll
 0001:00002abb       ?OnClick@WindowImplBase@DuiLib@@MEAAXAEAUtagTNotifyUI@2@@Z 0000000140003abb f   DuiLib:DuiLib.dll
 0001:00002ac1       ?OnFinalMessage@WindowImplBase@DuiLib@@UEAAXPEAUHWND__@@@Z 0000000140003ac1 f   DuiLib:DuiLib.dll
 0001:00002ac7       ?HandleMessage@WindowImplBase@DuiLib@@UEAA_JI_K_J@Z 0000000140003ac7 f   DuiLib:DuiLib.dll
 0001:00002acd       ?GetSuperClassName@CWindowWnd@DuiLib@@MEBAPEB_WXZ 0000000140003acd f   DuiLib:DuiLib.dll
 0001:00002ad3       ?GetMessageMap@CNotifyPump@DuiLib@@MEBAPEBUDUI_MSGMAP@2@XZ 0000000140003ad3 f   DuiLib:DuiLib.dll
 0001:00002adc       ??_Etype_info@@UEAAPEAXI@Z 0000000140003adc f i LIBCMT:std_type_info_static.obj
 0001:00002adc       ??_Gtype_info@@UEAAPEAXI@Z 0000000140003adc f i LIBCMT:std_type_info_static.obj
 0001:00002b08       ??3@YAXPEAX_K@Z            0000000140003b08 f   LIBCMT:delete_scalar_size.obj
 0001:00002b10       ??2@YAPEAX_K@Z             0000000140003b10 f   LIBCMT:new_scalar.obj
 0001:00002da4       wWinMainCRTStartup         0000000140003da4 f   LIBCMT:exe_wwinmain.obj
 0001:00002db8       ??3@YAXPEAX@Z              0000000140003db8 f   LIBCMT:delete_scalar.obj
 0001:00002dc0       ??0bad_alloc@std@@QEAA@AEBV01@@Z 0000000140003dc0 f i LIBCMT:throw_bad_alloc.obj
 0001:00002e00       ??0bad_alloc@std@@QEAA@XZ  0000000140003e00 f i LIBCMT:throw_bad_alloc.obj
 0001:00002e20       ??0bad_array_new_length@std@@QEAA@AEBV01@@Z 0000000140003e20 f i LIBCMT:throw_bad_alloc.obj
 0001:00002e60       ??0bad_array_new_length@std@@QEAA@XZ 0000000140003e60 f i LIBCMT:throw_bad_alloc.obj
 0001:00002e80       ??0exception@std@@QEAA@AEBV01@@Z 0000000140003e80 f i LIBCMT:throw_bad_alloc.obj
 0001:00002eb8       ??1bad_cast@std@@UEAA@XZ   0000000140003eb8 f i libvcruntime:rtti.obj
 0001:00002eb8       ??1bad_alloc@std@@UEAA@XZ  0000000140003eb8 f i LIBCMT:throw_bad_alloc.obj
 0001:00002eb8       ??1bad_exception@std@@UEAA@XZ 0000000140003eb8 f i libvcruntime:frame.obj
 0001:00002eb8       ??1bad_array_new_length@std@@UEAA@XZ 0000000140003eb8 f i LIBCMT:throw_bad_alloc.obj
 0001:00002eb8       ??1__non_rtti_object@std@@UEAA@XZ 0000000140003eb8 f i libvcruntime:rtti.obj
 0001:00002ecc       ??_Ebad_typeid@std@@UEAAPEAXI@Z 0000000140003ecc f i libvcruntime:rtti.obj
 0001:00002ecc       ??_Gbad_alloc@std@@UEAAPEAXI@Z 0000000140003ecc f i LIBCMT:throw_bad_alloc.obj
 0001:00002ecc       ??_Gbad_cast@std@@UEAAPEAXI@Z 0000000140003ecc f i libvcruntime:rtti.obj
 0001:00002ecc       ??_Gexception@std@@UEAAPEAXI@Z 0000000140003ecc f i LIBCMT:throw_bad_alloc.obj
 0001:00002ecc       ??_G__non_rtti_object@std@@UEAAPEAXI@Z 0000000140003ecc f i libvcruntime:rtti.obj
 0001:00002ecc       ??_Ebad_exception@std@@UEAAPEAXI@Z 0000000140003ecc f i libvcruntime:frame.obj
 0001:00002ecc       ??_Ebad_alloc@std@@UEAAPEAXI@Z 0000000140003ecc f i LIBCMT:throw_bad_alloc.obj
 0001:00002ecc       ??_Ebad_cast@std@@UEAAPEAXI@Z 0000000140003ecc f i libvcruntime:rtti.obj
 0001:00002ecc       ??_E__non_rtti_object@std@@UEAAPEAXI@Z 0000000140003ecc f i libvcruntime:rtti.obj
 0001:00002ecc       ??_Gbad_exception@std@@UEAAPEAXI@Z 0000000140003ecc f i libvcruntime:frame.obj
 0001:00002ecc       ??_Gbad_typeid@std@@UEAAPEAXI@Z 0000000140003ecc f i libvcruntime:rtti.obj
 0001:00002ecc       ??_Gbad_array_new_length@std@@UEAAPEAXI@Z 0000000140003ecc f i LIBCMT:throw_bad_alloc.obj
 0001:00002ecc       ??_Ebad_array_new_length@std@@UEAAPEAXI@Z 0000000140003ecc f i LIBCMT:throw_bad_alloc.obj
 0001:00002ecc       ??_Eexception@std@@UEAAPEAXI@Z 0000000140003ecc f i LIBCMT:throw_bad_alloc.obj
 0001:00002f10       ?__scrt_throw_std_bad_alloc@@YAXXZ 0000000140003f10 f   LIBCMT:throw_bad_alloc.obj
 0001:00002f30       ?__scrt_throw_std_bad_array_new_length@@YAXXZ 0000000140003f30 f   LIBCMT:throw_bad_alloc.obj
 0001:00002f50       ?what@exception@std@@UEBAPEBDXZ 0000000140003f50 f i LIBCMT:throw_bad_alloc.obj
 0001:00002f64       __scrt_acquire_startup_lock 0000000140003f64 f   LIBCMT:utility.obj
 0001:00002fa0       __scrt_initialize_crt      0000000140003fa0 f   LIBCMT:utility.obj
 0001:00002fec       __scrt_initialize_onexit_tables 0000000140003fec f   LIBCMT:utility.obj
 0001:000030c4       __scrt_is_nonwritable_in_current_image 00000001400040c4 f   LIBCMT:utility.obj
 0001:00003160       __scrt_release_startup_lock 0000000140004160 f   LIBCMT:utility.obj
 0001:00003184       __scrt_uninitialize_crt    0000000140004184 f   LIBCMT:utility.obj
 0001:000031b0       _onexit                    00000001400041b0 f   LIBCMT:utility.obj
 0001:00003200       atexit                     0000000140004200 f   LIBCMT:utility.obj
 0001:00003218       __security_init_cookie     0000000140004218 f   LIBCMT:gs_support.obj
 0001:000032c4       _get_startup_new_mode      00000001400042c4 f   LIBCMT:new_mode.obj
 0001:000032c4       _matherr                   00000001400042c4 f   LIBCMT:matherr.obj
 0001:000032c4       _get_startup_thread_locale_mode 00000001400042c4 f   LIBCMT:thread_locale.obj
 0001:000032c4       _get_startup_commit_mode   00000001400042c4 f   LIBCMT:commit_mode.obj
 0001:000032c4       __scrt_exe_initialize_mta  00000001400042c4 f   LIBCMT:utility_desktop.obj
 0001:000032c4       __scrt_initialize_winrt    00000001400042c4 f   LIBCMT:utility_desktop.obj
 0001:000032c4       __scrt_stub_for_initialize_mta 00000001400042c4 f   LIBCMT:utility_desktop.obj
 0001:000032c8       _get_startup_argv_mode     00000001400042c8 f   LIBCMT:argv_mode.obj
 0001:000032d0       _get_startup_file_mode     00000001400042d0 f   LIBCMT:file_mode.obj
 0001:000032d8       ?__scrt_initialize_type_info@@YAXXZ 00000001400042d8 f   LIBCMT:tncleanup.obj
 0001:000032e8       _should_initialize_environment 00000001400042e8 f   LIBCMT:env_mode.obj
 0001:000032e8       __acrt_uninitialize_command_line 00000001400042e8 f   libucrt:argv_data.obj
 0001:000032ec       __local_stdio_scanf_options 00000001400042ec f i LIBCMT:default_local_stdio_options.obj
 0001:000032f4       __scrt_initialize_default_local_stdio_options 00000001400042f4 f   LIBCMT:default_local_stdio_options.obj
 0001:00003310       __scrt_is_user_matherr_present 0000000140004310 f   LIBCMT:matherr_detection.obj
 0001:0000331c       __scrt_get_dyn_tls_init_callback 000000014000431c f   LIBCMT:dyn_tls_init.obj
 0001:00003324       __scrt_get_dyn_tls_dtor_callback 0000000140004324 f   LIBCMT:dyn_tls_dtor.obj
 0001:0000332c       __crt_debugger_hook        000000014000432c f   LIBCMT:utility_desktop.obj
 0001:00003334       __scrt_fastfail            0000000140004334 f   LIBCMT:utility_desktop.obj
 0001:00003480       __scrt_get_show_window_mode 0000000140004480 f   LIBCMT:utility_desktop.obj
 0001:000034bc       __scrt_initialize_mta      00000001400044bc f   LIBCMT:utility_desktop.obj
 0001:000034c4       __scrt_is_managed_app      00000001400044c4 f   LIBCMT:utility_desktop.obj
 0001:00003518       __scrt_set_unhandled_exception_filter 0000000140004518 f   LIBCMT:utility_desktop.obj
 0001:00003528       __scrt_unhandled_exception_filter 0000000140004528 f   LIBCMT:utility_desktop.obj
 0001:00003560       _RTC_Initialize            0000000140004560 f   LIBCMT:initsect.obj
 0001:0000359c       _RTC_Terminate             000000014000459c f   LIBCMT:initsect.obj
 0001:000035d8       __isa_available_init       00000001400045d8 f   LIBCMT:cpu_disp.obj
 0001:00003794       __scrt_is_ucrt_dll_in_use  0000000140004794 f   LIBCMT:ucrt_detection.obj
 0001:000037a0       ??$_CallSETranslator@V__FrameHandler3@@@@YAHPEAUEHExceptionRecord@@PEA_KPEAU_CONTEXT@@PEAU_xDISPATCHER_CONTEXT@@PEBU_s_FuncInfo@@K1@Z 00000001400047a0 f i libvcruntime:risctrnsctrl.obj
 0001:000037f4       ?CatchTryBlock@__FrameHandler3@@SAPEBU_s_TryBlockMapEntry@@PEBU_s_FuncInfo@@H@Z 00000001400047f4 f   libvcruntime:risctrnsctrl.obj
 0001:0000384c       ?ExecutionInCatch@__FrameHandler3@@SA_NPEAU_xDISPATCHER_CONTEXT@@PEBU_s_FuncInfo@@@Z 000000014000484c f   libvcruntime:risctrnsctrl.obj
 0001:00003878       ?FrameUnwindToEmptyState@__FrameHandler3@@SAXPEA_KPEAU_xDISPATCHER_CONTEXT@@PEBU_s_FuncInfo@@@Z 0000000140004878 f   libvcruntime:risctrnsctrl.obj
 0001:000038dc       ?GetEstablisherFrame@__FrameHandler3@@SAPEA_KPEA_KPEAU_xDISPATCHER_CONTEXT@@PEBU_s_FuncInfo@@0@Z 00000001400048dc f   libvcruntime:risctrnsctrl.obj
 0001:000039a8       ?GetRangeOfTrysToCheck@__FrameHandler3@@SA?AU?$pair@Viterator@TryBlockMap@__FrameHandler3@@V123@@std@@AEAVTryBlockMap@1@HH@Z 00000001400049a8 f   libvcruntime:risctrnsctrl.obj
 0001:00003b04       ?UnwindNestedFrames@__FrameHandler3@@SAXPEA_KPEAUEHExceptionRecord@@PEAU_CONTEXT@@0PEAXPEBU_s_FuncInfo@@HHPEBU_s_HandlerType@@PEAU_xDISPATCHER_CONTEXT@@E@Z 0000000140004b04 f   libvcruntime:risctrnsctrl.obj
 0001:00003c28       _CreateFrameInfo           0000000140004c28 f   libvcruntime:risctrnsctrl.obj
 0001:00003c64       _FindAndUnlinkFrame        0000000140004c64 f   libvcruntime:risctrnsctrl.obj
 0001:00003cb8       _GetImageBase              0000000140004cb8 f   libvcruntime:risctrnsctrl.obj
 0001:00003ccc       _GetThrowImageBase         0000000140004ccc f   libvcruntime:risctrnsctrl.obj
 0001:00003ce0       _SetImageBase              0000000140004ce0 f   libvcruntime:risctrnsctrl.obj
 0001:00003cf8       _SetThrowImageBase         0000000140004cf8 f   libvcruntime:risctrnsctrl.obj
 0001:00003d10       __CxxFrameHandler3         0000000140004d10 f   libvcruntime:risctrnsctrl.obj
 0001:00003d90       _purecall                  0000000140004d90 f   libvcruntime:purevirt.obj
 0001:00003dc0       __DestructExceptionObject  0000000140004dc0 f   libvcruntime:ehhelpers.obj
 0001:00003e34       ?_CallMemberFunction0@@YAXQEAX0@Z 0000000140004e34 f i libvcruntime:ehhelpers.obj
 0001:00003e38       _IsExceptionObjectToBeDestroyed 0000000140004e38 f   libvcruntime:ehhelpers.obj
 0001:00003e68       __AdjustPointer            0000000140004e68 f   libvcruntime:ehhelpers.obj
 0001:00003e8c       __FrameUnwindFilter        0000000140004e8c f   libvcruntime:ehhelpers.obj
 0001:00003ed8       __C_specific_handler       0000000140004ed8 f   libvcruntime:riscchandler.obj
 0001:000040e4       __std_exception_copy       00000001400050e4 f   libvcruntime:std_exception.obj
 0001:00004174       __std_exception_destroy    0000000140005174 f   libvcruntime:std_exception.obj
 0001:0000419c       _CxxThrowException         000000014000519c f   libvcruntime:throw.obj
 0001:0000425c       __vcrt_initialize          000000014000525c f   libvcruntime:initialization.obj
 0001:00004290       __vcrt_uninitialize        0000000140005290 f   libvcruntime:initialization.obj
 0001:000042b0       __std_type_info_compare    00000001400052b0 f   libvcruntime:std_type_info.obj
 0001:000042f0       memset_repmovs             00000001400052f0 f   libvcruntime:memset.obj
 0001:00004310       memset                     0000000140005310 f   libvcruntime:memset.obj
 0001:000044f0       __vcrt_freefls             00000001400054f0 f   libvcruntime:per_thread_data.obj
 0001:00004510       __vcrt_getptd              0000000140005510 f   libvcruntime:per_thread_data.obj
 0001:0000452c       __vcrt_getptd_noexit       000000014000552c f   libvcruntime:per_thread_data.obj
 0001:000045f8       __vcrt_initialize_ptd      00000001400055f8 f   libvcruntime:per_thread_data.obj
 0001:0000464c       __vcrt_uninitialize_ptd    000000014000564c f   libvcruntime:per_thread_data.obj
 0001:00004670       ?GetCurrentState@__FrameHandler3@@SAHPEA_KPEAU_xDISPATCHER_CONTEXT@@PEBU_s_FuncInfo@@@Z 0000000140005670 f   libvcruntime:ehstate.obj
 0001:00004698       ?GetUnwindTryBlock@__FrameHandler3@@SAHPEA_KPEAU_xDISPATCHER_CONTEXT@@PEBU_s_FuncInfo@@@Z 0000000140005698 f   libvcruntime:ehstate.obj
 0001:000046c4       ?SetState@__FrameHandler3@@SAXPEA_KPEBU_s_FuncInfo@@H@Z 00000001400056c4 f   libvcruntime:ehstate.obj
 0001:000046d0       ?SetUnwindTryBlock@__FrameHandler3@@SAXPEA_KPEAU_xDISPATCHER_CONTEXT@@PEBU_s_FuncInfo@@H@Z 00000001400056d0 f   libvcruntime:ehstate.obj
 0001:0000470c       ?StateFromControlPc@__FrameHandler3@@SAHPEBU_s_FuncInfo@@PEAU_xDISPATCHER_CONTEXT@@@Z 000000014000570c f   libvcruntime:ehstate.obj
 0001:00004714       ?StateFromIp@__FrameHandler3@@SAHPEBU_s_FuncInfo@@PEAU_xDISPATCHER_CONTEXT@@_K@Z 0000000140005714 f   libvcruntime:ehstate.obj
 0001:000051a0       ??$TypeMatchHelper@V__FrameHandler3@@@@YAHPEBU_s_HandlerType@@PEBU_s_CatchableType@@PEBU_s_ThrowInfo@@@Z 00000001400061a0 f i libvcruntime:frame.obj
 0001:000052e4       ??$__InternalCxxFrameHandler@V__FrameHandler3@@@@YA?AW4_EXCEPTION_DISPOSITION@@PEAUEHExceptionRecord@@PEA_KPEAU_CONTEXT@@PEAU_xDISPATCHER_CONTEXT@@PEBU_s_FuncInfo@@H1E@Z 00000001400062e4 f i libvcruntime:frame.obj
 0001:0000552c       ??0bad_exception@std@@QEAA@AEBV01@@Z 000000014000652c f i libvcruntime:frame.obj
 0001:0000556c       ??0bad_exception@std@@QEAA@XZ 000000014000656c f i libvcruntime:frame.obj
 0001:0000558c       ?CxxCallCatchBlock@__FrameHandler3@@SAPEAXPEAU_EXCEPTION_RECORD@@@Z 000000014000658c f   libvcruntime:frame.obj
 0001:00005800       ?FrameUnwindToState@__FrameHandler3@@SAXPEA_KPEAU_xDISPATCHER_CONTEXT@@PEBU_s_FuncInfo@@H@Z 0000000140006800 f   libvcruntime:frame.obj
 0001:00005994       ?GetHandlerSearchState@__FrameHandler3@@SAHPEA_KPEAU_xDISPATCHER_CONTEXT@@PEBU_s_FuncInfo@@@Z 0000000140006994 f i libvcruntime:frame.obj
 0001:00005b98       ?_CallMemberFunction1@@YAXQEAX00@Z 0000000140006b98 f i libvcruntime:frame.obj
 0001:00005ba4       ?_CallMemberFunction2@@YAXQEAX00H@Z 0000000140006ba4 f i libvcruntime:frame.obj
 0001:00005bb4       __vcrt_initialize_pure_virtual_call_handler 0000000140006bb4 f   libvcruntime:purevirt_data.obj
 0001:00005be0       _NLG_Notify                0000000140006be0 f   libvcruntime:notify.obj
 0001:00005c00       __NLG_Dispatch2            0000000140006c00 f   libvcruntime:notify.obj
 0001:00005c10       __NLG_Return2              0000000140006c10 f   libvcruntime:notify.obj
 0001:00005c14       __except_validate_context_record 0000000140006c14 f   libvcruntime:jbcxrval.obj
 0001:00005c4c       __vcrt_initialize_locks    0000000140006c4c f   libvcruntime:locks.obj
 0001:00005c94       __vcrt_uninitialize_locks  0000000140006c94 f   libvcruntime:locks.obj
 0001:00005ea4       __vcrt_FlsAlloc            0000000140006ea4 f   libvcruntime:winapi_downlevel.obj
 0001:00005eec       __vcrt_FlsFree             0000000140006eec f   libvcruntime:winapi_downlevel.obj
 0001:00005f34       __vcrt_FlsGetValue         0000000140006f34 f   libvcruntime:winapi_downlevel.obj
 0001:00005f7c       __vcrt_FlsSetValue         0000000140006f7c f   libvcruntime:winapi_downlevel.obj
 0001:00005fd0       __vcrt_InitializeCriticalSectionEx 0000000140006fd0 f   libvcruntime:winapi_downlevel.obj
 0001:00006034       __vcrt_initialize_winapi_thunks 0000000140007034 f   libvcruntime:winapi_downlevel.obj
 0001:00006064       __vcrt_uninitialize_winapi_thunks 0000000140007064 f   libvcruntime:winapi_downlevel.obj
 0001:000060c0       _CallSettingFrame          00000001400070c0 f   libvcruntime:handlers.obj
 0001:00006110       _CallSettingFrameEncoded   0000000140007110 f   libvcruntime:handlers.obj
 0001:00006170       memcpy_repmovs             0000000140007170 f   libvcruntime:memcpy.obj
 0001:00006190       memcpy                     0000000140007190 f   libvcruntime:memcpy.obj
 0001:00006190       memmove                    0000000140007190 f   libvcruntime:memcpy.obj
 0001:000069a8       ??$ensure_buffer_is_big_enough@D@formatting_buffer@__crt_stdio_output@@QEAA_N_K@Z 00000001400079a8 f i libucrt:output.obj
 0001:00006a50       ??$ensure_buffer_is_big_enough@_W@formatting_buffer@__crt_stdio_output@@QEAA_N_K@Z 0000000140007a50 f i libucrt:output.obj
 0001:00006afc       ??$is_wide_character_specifier@_W@__crt_stdio_output@@YA_N_K_WW4length_modifier@0@@Z 0000000140007afc f i libucrt:output.obj
 0001:00006b3c       ??$type_case_integer_parse_into_buffer@I@?$output_processor@DV?$string_output_adapter@D@__crt_stdio_output@@V?$format_validation_base@DV?$string_output_adapter@D@__crt_stdio_output@@@2@@__crt_stdio_output@@AEAAXII_N@Z 0000000140007b3c f i libucrt:output.obj
 0001:00006bc4       ??$type_case_integer_parse_into_buffer@I@?$output_processor@_WV?$string_output_adapter@_W@__crt_stdio_output@@V?$format_validation_base@_WV?$string_output_adapter@_W@__crt_stdio_output@@@2@@__crt_stdio_output@@AEAAXII_N@Z 0000000140007bc4 f i libucrt:output.obj
 0001:00006c68       ??$type_case_integer_parse_into_buffer@_K@?$output_processor@DV?$string_output_adapter@D@__crt_stdio_output@@V?$format_validation_base@DV?$string_output_adapter@D@__crt_stdio_output@@@2@@__crt_stdio_output@@AEAAX_KI_N@Z 0000000140007c68 f i libucrt:output.obj
 0001:00006cf8       ??$type_case_integer_parse_into_buffer@_K@?$output_processor@_WV?$string_output_adapter@_W@__crt_stdio_output@@V?$format_validation_base@_WV?$string_output_adapter@_W@__crt_stdio_output@@@2@@__crt_stdio_output@@AEAAX_KI_N@Z 0000000140007cf8 f i libucrt:output.obj
 0001:00006d9c       ??$write_multiple_characters@V?$string_output_adapter@D@__crt_stdio_output@@D@__crt_stdio_output@@YAXAEBV?$string_output_adapter@D@0@DHQEAH@Z 0000000140007d9c f i libucrt:output.obj
 0001:00006e14       ??$write_multiple_characters@V?$string_output_adapter@_W@__crt_stdio_output@@D@__crt_stdio_output@@YAXAEBV?$string_output_adapter@_W@0@DHQEAH@Z 0000000140007e14 f i libucrt:output.obj
 0001:00006e90       ??0_LocaleUpdate@@QEAA@QEAU__crt_locale_pointers@@@Z 0000000140007e90 f i libucrt:output.obj
 0001:00006f2c       ?crop_zeroes@__crt_stdio_output@@YAXPEADQEAU__crt_locale_pointers@@@Z 0000000140007f2c f i libucrt:output.obj
 0001:00006f98       ?parse_int_from_format_string@?$output_processor@DV?$string_output_adapter@D@__crt_stdio_output@@V?$format_validation_base@DV?$string_output_adapter@D@__crt_stdio_output@@@2@@__crt_stdio_output@@AEAA_NQEAH@Z 0000000140007f98 f i libucrt:output.obj
 0001:0000703c       ?parse_int_from_format_string@?$output_processor@_WV?$string_output_adapter@_W@__crt_stdio_output@@V?$format_validation_base@_WV?$string_output_adapter@_W@__crt_stdio_output@@@2@@__crt_stdio_output@@AEAA_NQEAH@Z 000000014000803c f i libucrt:output.obj
 0001:000070e0       ?process@?$output_processor@DV?$string_output_adapter@D@__crt_stdio_output@@V?$format_validation_base@DV?$string_output_adapter@D@__crt_stdio_output@@@2@@__crt_stdio_output@@QEAAHXZ 00000001400080e0 f i libucrt:output.obj
 0001:000072f8       ?process@?$output_processor@_WV?$string_output_adapter@_W@__crt_stdio_output@@V?$format_validation_base@_WV?$string_output_adapter@_W@__crt_stdio_output@@@2@@__crt_stdio_output@@QEAAHXZ 00000001400082f8 f i libucrt:output.obj
 0001:00007580       ?state_case_normal@?$output_processor@DV?$string_output_adapter@D@__crt_stdio_output@@V?$format_validation_base@DV?$string_output_adapter@D@__crt_stdio_output@@@2@@__crt_stdio_output@@AEAA_NXZ 0000000140008580 f i libucrt:output.obj
 0001:000075f4       ?state_case_normal_tchar@?$output_processor@DV?$string_output_adapter@D@__crt_stdio_output@@V?$format_validation_base@DV?$string_output_adapter@D@__crt_stdio_output@@@2@@__crt_stdio_output@@AEAA_ND@Z 00000001400085f4 f i libucrt:output.obj
 0001:0000769c       ?state_case_size@?$output_processor@DV?$string_output_adapter@D@__crt_stdio_output@@V?$format_validation_base@DV?$string_output_adapter@D@__crt_stdio_output@@@2@@__crt_stdio_output@@AEAA_NXZ 000000014000869c f i libucrt:output.obj
 0001:00007810       ?state_case_size@?$output_processor@_WV?$string_output_adapter@_W@__crt_stdio_output@@V?$format_validation_base@_WV?$string_output_adapter@_W@__crt_stdio_output@@@2@@__crt_stdio_output@@AEAA_NXZ 0000000140008810 f i libucrt:output.obj
 0001:000079a8       ?state_case_type@?$output_processor@DV?$string_output_adapter@D@__crt_stdio_output@@V?$format_validation_base@DV?$string_output_adapter@D@__crt_stdio_output@@@2@@__crt_stdio_output@@AEAA_NXZ 00000001400089a8 f i libucrt:output.obj
 0001:00007c10       ?state_case_type@?$output_processor@_WV?$string_output_adapter@_W@__crt_stdio_output@@V?$format_validation_base@_WV?$string_output_adapter@_W@__crt_stdio_output@@@2@@__crt_stdio_output@@AEAA_NXZ 0000000140008c10 f i libucrt:output.obj
 0001:00007edc       ?type_case_Z@?$output_processor@DV?$string_output_adapter@D@__crt_stdio_output@@V?$format_validation_base@DV?$string_output_adapter@D@__crt_stdio_output@@@2@@__crt_stdio_output@@AEAA_NXZ 0000000140008edc f i libucrt:output.obj
 0001:00007f50       ?type_case_Z@?$output_processor@_WV?$string_output_adapter@_W@__crt_stdio_output@@V?$format_validation_base@_WV?$string_output_adapter@_W@__crt_stdio_output@@@2@@__crt_stdio_output@@AEAA_NXZ 0000000140008f50 f i libucrt:output.obj
 0001:00007fcc       ?type_case_a@?$output_processor@DV?$string_output_adapter@D@__crt_stdio_output@@V?$format_validation_base@DV?$string_output_adapter@D@__crt_stdio_output@@@2@@__crt_stdio_output@@AEAA_NXZ 0000000140008fcc f i libucrt:output.obj
 0001:000081e4       ?type_case_a@?$output_processor@_WV?$string_output_adapter@_W@__crt_stdio_output@@V?$format_validation_base@_WV?$string_output_adapter@_W@__crt_stdio_output@@@2@@__crt_stdio_output@@AEAA_NXZ 00000001400091e4 f i libucrt:output.obj
 0001:00008420       ?type_case_c_tchar@?$output_processor@DV?$string_output_adapter@D@__crt_stdio_output@@V?$format_validation_base@DV?$string_output_adapter@D@__crt_stdio_output@@@2@@__crt_stdio_output@@AEAA_ND@Z 0000000140009420 f i libucrt:output.obj
 0001:000084dc       ?type_case_c_tchar@?$output_processor@_WV?$string_output_adapter@_W@__crt_stdio_output@@V?$format_validation_base@_WV?$string_output_adapter@_W@__crt_stdio_output@@@2@@__crt_stdio_output@@AEAA_N_W@Z 00000001400094dc f i libucrt:output.obj
 0001:00008584       ?type_case_integer@?$output_processor@DV?$string_output_adapter@D@__crt_stdio_output@@V?$format_validation_base@DV?$string_output_adapter@D@__crt_stdio_output@@@2@@__crt_stdio_output@@AEAA_NI_N@Z 0000000140009584 f i libucrt:output.obj
 0001:0000874c       ?type_case_integer@?$output_processor@_WV?$string_output_adapter@_W@__crt_stdio_output@@V?$format_validation_base@_WV?$string_output_adapter@_W@__crt_stdio_output@@@2@@__crt_stdio_output@@AEAA_NI_N@Z 000000014000974c f i libucrt:output.obj
 0001:00008918       ?type_case_n@?$output_processor@_WV?$string_output_adapter@_W@__crt_stdio_output@@V?$format_validation_base@_WV?$string_output_adapter@_W@__crt_stdio_output@@@2@@__crt_stdio_output@@AEAA_NXZ 0000000140009918 f i libucrt:output.obj
 0001:00008918       ?type_case_n@?$output_processor@DV?$string_output_adapter@D@__crt_stdio_output@@V?$format_validation_base@DV?$string_output_adapter@D@__crt_stdio_output@@@2@@__crt_stdio_output@@AEAA_NXZ 0000000140009918 f i libucrt:output.obj
 0001:000089f4       ?type_case_s@?$output_processor@DV?$string_output_adapter@D@__crt_stdio_output@@V?$format_validation_base@DV?$string_output_adapter@D@__crt_stdio_output@@@2@@__crt_stdio_output@@AEAA_NXZ 00000001400099f4 f i libucrt:output.obj
 0001:00008a8c       ?type_case_s@?$output_processor@_WV?$string_output_adapter@_W@__crt_stdio_output@@V?$format_validation_base@_WV?$string_output_adapter@_W@__crt_stdio_output@@@2@@__crt_stdio_output@@AEAA_NXZ 0000000140009a8c f i libucrt:output.obj
 0001:00008b54       ?write_stored_string_tchar@?$output_processor@DV?$string_output_adapter@D@__crt_stdio_output@@V?$format_validation_base@DV?$string_output_adapter@D@__crt_stdio_output@@@2@@__crt_stdio_output@@AEAA_ND@Z 0000000140009b54 f i libucrt:output.obj
 0001:00008c2c       ?write_stored_string_tchar@?$output_processor@_WV?$string_output_adapter@_W@__crt_stdio_output@@V?$format_validation_base@_WV?$string_output_adapter@_W@__crt_stdio_output@@@2@@__crt_stdio_output@@AEAA_N_W@Z 0000000140009c2c f i libucrt:output.obj
 0001:00008d18       ?write_string@?$string_output_adapter@D@__crt_stdio_output@@QEBAXQEBDHQEAHAEAV__crt_deferred_errno_cache@@@Z 0000000140009d18 f i libucrt:output.obj
 0001:00008dbc       ?write_string@?$string_output_adapter@_W@__crt_stdio_output@@QEBAXQEB_WHQEAHAEAV__crt_deferred_errno_cache@@@Z 0000000140009dbc f i libucrt:output.obj
 0001:00008e64       __stdio_common_vsnwprintf_s 0000000140009e64 f   libucrt:output.obj
 0001:00008fa8       __stdio_common_vsprintf_s  0000000140009fa8 f   libucrt:output.obj
 0001:0000914c       _itow_s                    000000014000a14c f   libucrt:xtoa.obj
 0001:0000916c       wcscpy_s                   000000014000a16c f   libucrt:wcscpy_s.obj
 0001:000091d4       strcpy_s                   000000014000a1d4 f   libucrt:strcpy_s.obj
 0001:00009234       strcat_s                   000000014000a234 f   libucrt:strcat_s.obj
 0001:000092ac       ??$parse_integer@KV?$c_string_character_source@D@__crt_strtox@@@__crt_strtox@@YAKQEAU__crt_locale_pointers@@V?$c_string_character_source@D@0@H_N@Z 000000014000a2ac f i libucrt:atox.obj
 0001:000095b4       ??$parse_integer@KV?$c_string_character_source@_W@__crt_strtox@@@__crt_strtox@@YAKQEAU__crt_locale_pointers@@V?$c_string_character_source@_W@0@H_N@Z 000000014000a5b4 f i libucrt:atox.obj
 0001:00009c5c       _ischartype_l              000000014000ac5c f i libucrt:atox.obj
 0001:00009cd4       _wtoi                      000000014000acd4 f   libucrt:atox.obj
 0001:00009d00       wcscat_s                   000000014000ad00 f   libucrt:wcscat_s.obj
 0001:00009d80       rand                       000000014000ad80 f   libucrt:rand.obj
 0001:00009dac       __acrt_initialize_new_handler 000000014000adac f   libucrt:new_handler.obj
 0001:00009db4       _callnewh                  000000014000adb4 f   libucrt:new_handler.obj
 0001:00009de4       _query_new_handler         000000014000ade4 f   libucrt:new_handler.obj
 0001:00009e18       malloc                     000000014000ae18 f   libucrt:malloc.obj
 0001:00009e20       _seh_filter_exe            000000014000ae20 f   libucrt:exception_filter.obj
 0001:00009fa4       _query_app_type            000000014000afa4 f   libucrt:report_runtime_error.obj
 0001:00009fac       _set_app_type              000000014000afac f   libucrt:report_runtime_error.obj
 0001:00009fb4       __acrt_has_user_matherr    000000014000afb4 f   libucrt:matherr.obj
 0001:00009fd4       __acrt_initialize_user_matherr 000000014000afd4 f   libucrt:matherr.obj
 0001:00009fdc       __acrt_invoke_user_matherr 000000014000afdc f   libucrt:matherr.obj
 0001:0000a00c       __setusermatherr           000000014000b00c f   libucrt:matherr.obj
 0001:0000a1d8       __acrt_allocate_buffer_for_argv 000000014000b1d8 f   libucrt:argv_parsing.obj
 0001:0000a238       _configure_wide_argv       000000014000b238 f   libucrt:argv_parsing.obj
 0001:0000a5b4       __dcrt_uninitialize_environments_nolock 000000014000b5b4 f   libucrt:environment_initialization.obj
 0001:0000a5ec       _initialize_wide_environment 000000014000b5ec f   libucrt:environment_initialization.obj
 0001:0000a5f4       _get_wide_winmain_command_line 000000014000b5f4 f   libucrt:argv_winmain.obj
 0001:0000a648       _initterm                  000000014000b648 f   libucrt:initterm.obj
 0001:0000a6ac       _initterm_e                000000014000b6ac f   libucrt:initterm.obj
 0001:0000a958       __acrt_initialize_thread_local_exit_callback 000000014000b958 f   libucrt:exit.obj
 0001:0000a960       _c_exit                    000000014000b960 f   libucrt:exit.obj
 0001:0000a970       _cexit                     000000014000b970 f   libucrt:exit.obj
 0001:0000a980       _exit                      000000014000b980 f   libucrt:exit.obj
 0001:0000a98c       _register_thread_local_exe_atexit_callback 000000014000b98c f   libucrt:exit.obj
 0001:0000a9c8       exit                       000000014000b9c8 f   libucrt:exit.obj
 0001:0000a9d4       _set_fmode                 000000014000b9d4 f   libucrt:setmode.obj
 0001:0000aa84       __acrt_set_locale_changed  000000014000ba84 f   libucrt:wsetlocale.obj
 0001:0000aa90       __acrt_uninitialize_locale 000000014000ba90 f   libucrt:wsetlocale.obj
 0001:0000aac0       _configthreadlocale        000000014000bac0 f   libucrt:wsetlocale.obj
 0001:0000ab2c       _query_new_mode            000000014000bb2c f   libucrt:new_mode.obj
 0001:0000ab34       _set_new_mode              000000014000bb34 f   libucrt:new_mode.obj
 0001:0000ab60       __p__commode               000000014000bb60 f   libucrt:ncommode.obj
 0001:0000ab68       free                       000000014000bb68 f   libucrt:free.obj
 0001:0000aebc       _crt_atexit                000000014000bebc f   libucrt:onexit.obj
 0001:0000aecc       _execute_onexit_table      000000014000becc f   libucrt:onexit.obj
 0001:0000af08       _initialize_onexit_table   000000014000bf08 f   libucrt:onexit.obj
 0001:0000af30       _register_onexit_function  000000014000bf30 f   libucrt:onexit.obj
 0001:0000b0a4       __acrt_initialize          000000014000c0a4 f   libucrt:initialization.obj
 0001:0000b0b8       __acrt_uninitialize        000000014000c0b8 f   libucrt:initialization.obj
 0001:0000b0f0       terminate                  000000014000c0f0 f   libucrt:terminate.obj
 0001:0000b308       wcsupr                     000000014000c308 f   libucrt:wcsupr.obj
 0001:0000b308       _wcsupr                    000000014000c308 f   libucrt:wcsupr.obj
 0001:0000b370       _wcsupr_s_l                000000014000c370 f   libucrt:wcsupr.obj
 0001:0000b3bc       abort                      000000014000c3bc f   libucrt:abort.obj
 0001:0000b414       calloc                     000000014000c414 f   libucrt:calloc.obj
 0001:0000b41c       wcsncmp                    000000014000c41c f   libucrt:wcsncmp.obj
 0001:0000b460       strncmp                    000000014000c460 f   libucrt:strncmp.obj
 0001:0000b4e0       __acrt_call_reportfault    000000014000c4e0 f   libucrt:invalid_parameter.obj
 0001:0000b63c       __acrt_initialize_invalid_parameter_handler 000000014000c63c f   libucrt:invalid_parameter.obj
 0001:0000b644       _invalid_parameter         000000014000c644 f   libucrt:invalid_parameter.obj
 0001:0000b6f4       _invalid_parameter_noinfo  000000014000c6f4 f   libucrt:invalid_parameter.obj
 0001:0000b714       _invoke_watson             000000014000c714 f   libucrt:invalid_parameter.obj
 0001:0000b75c       __acrt_errno_from_os_error 000000014000c75c f   libucrt:errno.obj
 0001:0000b7a4       __acrt_errno_map_os_error  000000014000c7a4 f   libucrt:errno.obj
 0001:0000b7f4       __doserrno                 000000014000c7f4 f   libucrt:errno.obj
 0001:0000b814       _errno                     000000014000c814 f   libucrt:errno.obj
 0001:0000b834       _free_base                 000000014000c834 f   libucrt:free_base.obj
 0001:0000b874       _malloc_base               000000014000c874 f   libucrt:malloc_base.obj
 0001:0000b8d4       strtol                     000000014000c8d4 f   libucrt:strtox.obj
 0001:0000b900       wcstol                     000000014000c900 f   libucrt:strtox.obj
 0001:0000b92c       _mbtowc_l                  000000014000c92c f   libucrt:mbtowc.obj
 0001:0000baac       mbtowc                     000000014000caac f   libucrt:mbtowc.obj
 0001:0000bab4       _wctomb_s_l                000000014000cab4 f   libucrt:wctomb.obj
 0001:0000bc50       wctomb_s                   000000014000cc50 f   libucrt:wctomb.obj
 0001:0000bc64       strnlen                    000000014000cc64 f   libucrt:strnlen.obj
 0001:0000bdb4       wcsnlen                    000000014000cdb4 f   libucrt:strnlen.obj
 0001:0000c304       __acrt_getptd              000000014000d304 f   libucrt:per_thread_data.obj
 0001:0000c3d8       __acrt_getptd_head         000000014000d3d8 f   libucrt:per_thread_data.obj
 0001:0000c480       __acrt_getptd_noexit       000000014000d480 f   libucrt:per_thread_data.obj
 0001:0000c54c       __acrt_initialize_ptd      000000014000d54c f   libucrt:per_thread_data.obj
 0001:0000c588       __acrt_uninitialize_ptd    000000014000d588 f   libucrt:per_thread_data.obj
 0001:0000c5ac       __acrt_update_locale_info  000000014000d5ac f   libucrt:locale_update.obj
 0001:0000c5e0       __acrt_update_multibyte_info 000000014000d5e0 f   libucrt:locale_update.obj
 0001:0000ceac       __acrt_fp_format           000000014000deac f   libucrt:cvt.obj
 0001:0000d1b0       _fileno                    000000014000e1b0 f   libucrt:fileno.obj
 0001:0000d1d8       __acrt_initialize_stdio    000000014000e1d8 f   libucrt:_file.obj
 0001:0000d2f8       __acrt_uninitialize_stdio  000000014000e2f8 f   libucrt:_file.obj
 0001:0000d354       _lock_file                 000000014000e354 f   libucrt:_file.obj
 0001:0000d360       _unlock_file               000000014000e360 f   libucrt:_file.obj
 0001:0000d36c       _get_printf_count_output   000000014000e36c f   libucrt:printf_count_output.obj
 0001:0000d580       __acrt_initialize_lowio    000000014000e580 f   libucrt:ioinit.obj
 0001:0000d5bc       __acrt_uninitialize_lowio  000000014000e5bc f   libucrt:ioinit.obj
 0001:0000d5fc       __pctype_func              000000014000e5fc f   libucrt:ctype.obj
 0001:0000d62c       iswctype                   000000014000e62c f   libucrt:iswctype.obj
 0001:0000d69c       _isctype_l                 000000014000e69c f   libucrt:isctype.obj
 0001:0000d7a4       __acrt_initialize_locks    000000014000e7a4 f   libucrt:locks.obj
 0001:0000d7ec       __acrt_lock                000000014000e7ec f   libucrt:locks.obj
 0001:0000d808       __acrt_uninitialize_locks  000000014000e808 f   libucrt:locks.obj
 0001:0000d840       __acrt_unlock              000000014000e840 f   libucrt:locks.obj
 0001:0000d85c       wcsncpy_s                  000000014000e85c f   libucrt:wcsncpy_s.obj
 0001:0000d940       _calloc_base               000000014000e940 f   libucrt:calloc_base.obj
 0001:0000df24       __acrt_expand_wide_argv_wildcards 000000014000ef24 f   libucrt:argv_wildcards.obj
 0001:0000e658       __acrt_initialize_multibyte 000000014000f658 f   libucrt:mbctype.obj
 0001:0000e6b8       __acrt_update_thread_multibyte_data 000000014000f6b8 f   libucrt:mbctype.obj
 0001:0000e6d4       _setmbcp_nolock            000000014000f6d4 f   libucrt:mbctype.obj
 0001:0000e990       __acrt_initialize_command_line 000000014000f990 f   libucrt:argv_data.obj
 0001:0000e9b8       __acrt_MultiByteToWideChar 000000014000f9b8 f   libucrt:multibytetowidechar.obj
 0001:0000ea14       __acrt_WideCharToMultiByte 000000014000fa14 f   libucrt:widechartomultibyte.obj
 0001:0000eaac       __dcrt_get_wide_environment_from_os 000000014000faac f   libucrt:get_environment_from_os.obj
 0001:0000eb4c       __acrt_get_process_end_policy 000000014000fb4c f   libucrt:win_policies.obj
 0001:0000eb88       __acrt_lowio_create_handle_array 000000014000fb88 f   libucrt:osfinfo.obj
 0001:0000ec30       __acrt_lowio_destroy_handle_array 000000014000fc30 f   libucrt:osfinfo.obj
 0001:0000ec80       __acrt_lowio_ensure_fh_exists 000000014000fc80 f   libucrt:osfinfo.obj
 0001:0000ed28       __acrt_lowio_lock_fh       000000014000fd28 f   libucrt:osfinfo.obj
 0001:0000ed50       __acrt_lowio_unlock_fh     000000014000fd50 f   libucrt:osfinfo.obj
 0001:0000ed78       _free_osfhnd               000000014000fd78 f   libucrt:osfinfo.obj
 0001:0000ee34       _get_osfhandle             000000014000fe34 f   libucrt:osfinfo.obj
 0001:0000eeac       __acrt_locale_free_monetary 000000014000feac f   libucrt:initmon.obj
 0001:0000efb8       __acrt_locale_free_numeric 000000014000ffb8 f   libucrt:initnum.obj
 0001:0000f07c       __acrt_locale_free_time    000000014001007c f   libucrt:inittime.obj
 0001:0000f184       wcspbrk                    0000000140010184 f   libucrt:wcspbrk.obj
 0001:0000f1b8       __acrt_GetStringTypeA      00000001400101b8 f   libucrt:getstringtypea.obj
 0001:0000f348       __acrt_add_locale_ref      0000000140010348 f   libucrt:locale_refcounting.obj
 0001:0000f3d4       __acrt_free_locale         00000001400103d4 f   libucrt:locale_refcounting.obj
 0001:0000f54c       __acrt_locale_add_lc_time_reference 000000014001054c f   libucrt:locale_refcounting.obj
 0001:0000f574       __acrt_locale_free_lc_time_if_unreferenced 0000000140010574 f   libucrt:locale_refcounting.obj
 0001:0000f5ac       __acrt_locale_release_lc_time_reference 00000001400105ac f   libucrt:locale_refcounting.obj
 0001:0000f5d4       __acrt_release_locale_ref  00000001400105d4 f   libucrt:locale_refcounting.obj
 0001:0000f67c       __acrt_update_thread_locale_data 000000014001067c f   libucrt:locale_refcounting.obj
 0001:0000f6e8       _updatetlocinfoEx_nolock   00000001400106e8 f   libucrt:locale_refcounting.obj
 0001:0000f928       __acrt_AppPolicyGetProcessTerminationMethodInternal 0000000140010928 f   libucrt:winapi_thunks.obj
 0001:0000f978       __acrt_FlsAlloc            0000000140010978 f   libucrt:winapi_thunks.obj
 0001:0000f9c0       __acrt_FlsFree             00000001400109c0 f   libucrt:winapi_thunks.obj
 0001:0000fa08       __acrt_FlsGetValue         0000000140010a08 f   libucrt:winapi_thunks.obj
 0001:0000fa50       __acrt_FlsSetValue         0000000140010a50 f   libucrt:winapi_thunks.obj
 0001:0000faa4       __acrt_InitializeCriticalSectionEx 0000000140010aa4 f   libucrt:winapi_thunks.obj
 0001:0000fb08       __acrt_LCMapStringEx       0000000140010b08 f   libucrt:winapi_thunks.obj
 0001:0000fbe4       __acrt_LocaleNameToLCID    0000000140010be4 f   libucrt:winapi_thunks.obj
 0001:0000fc34       __acrt_initialize_winapi_thunks 0000000140010c34 f   libucrt:winapi_thunks.obj
 0001:0000fc68       __acrt_uninitialize_winapi_thunks 0000000140010c68 f   libucrt:winapi_thunks.obj
 0001:0000fcac       _recalloc_base             0000000140010cac f   libucrt:recalloc.obj
 0001:0000fd44       __acrt_initialize_heap     0000000140010d44 f   libucrt:heap_handle.obj
 0001:0000fd60       __acrt_uninitialize_heap   0000000140010d60 f   libucrt:heap_handle.obj
 0001:0000fd6c       __acrt_execute_initializers 0000000140010d6c f   libucrt:shared_initialization.obj
 0001:0000fdec       __acrt_execute_uninitializers 0000000140010dec f   libucrt:shared_initialization.obj
 0001:0000fe70       __acrt_get_sigabrt_handler 0000000140010e70 f   libucrt:signal.obj
 0001:0000fea0       __acrt_initialize_signal_handlers 0000000140010ea0 f   libucrt:signal.obj
 0001:0000fec0       raise                      0000000140010ec0 f   libucrt:signal.obj
 0001:00010308       __acrt_stdio_flush_nolock  0000000140011308 f   libucrt:fflush.obj
 0001:00010384       _fflush_nolock             0000000140011384 f   libucrt:fflush.obj
 0001:000103d0       _flushall                  00000001400113d0 f   libucrt:fflush.obj
 0001:000103d8       __acrt_LCMapStringW        00000001400113d8 f   libucrt:lcmapstringw.obj
 0001:00010460       _isleadbyte_l              0000000140011460 f i libucrt:_wctype.obj
 0001:000104ac       ?__mbrtowc_utf8@__crt_mbstring@@YA_KPEA_WPEBD_KPEAU_Mbstatet@@@Z 00000001400114ac f   libucrt:mbrtowc.obj
 0001:000104e8       ?__mbsrtowcs_utf8@__crt_mbstring@@YA_KPEA_WPEAPEBD_KPEAU_Mbstatet@@@Z 00000001400114e8 f   libucrt:mbrtowc.obj
 0001:00010660       ?__c32rtomb_utf8@__crt_mbstring@@YA_KPEAD_UPEAU_Mbstatet@@@Z 0000000140011660 f   libucrt:c32rtomb.obj
 0001:00010714       __acrt_fp_strflt_to_string 0000000140011714 f   libucrt:_fptostr.obj
 0001:00010800       ?divide@__crt_strtox@@YA_KAEAUbig_integer@1@AEBU21@@Z 0000000140011800 f i libucrt:cfout.obj
 0001:00010c2c       __acrt_fltout              0000000140011c2c f   libucrt:cfout.obj
 0001:00011ee8       _fcloseall                 0000000140012ee8 f   libucrt:closeall.obj
 0001:00011f9c       __acrt_stdio_free_buffer_nolock 0000000140012f9c f   libucrt:_freebuf.obj
 0001:00011fdc       _isatty                    0000000140012fdc f   libucrt:isatty.obj
 0001:0001203c       __acrt_GetStringTypeW      000000014001303c f   libucrt:getstringtypew.obj
 0001:00012050       qsort                      0000000140013050 f   libucrt:qsort.obj
 0001:00012718       __acrt_LCMapStringA        0000000140013718 f   libucrt:lcmapstringa.obj
 0001:000127c8       __ascii_wcsnicmp           00000001400137c8 f   libucrt:wcsnicmp.obj
 0001:00012814       __acrt_DownlevelLocaleNameToLCID 0000000140013814 f   libucrt:lcidtoname_downlevel.obj
 0001:000128c4       _msize_base                00000001400138c4 f   libucrt:msize.obj
 0001:00012900       _realloc_base              0000000140013900 f   libucrt:realloc_base.obj
 0001:00012a08       _commit                    0000000140013a08 f   libucrt:commit.obj
 0001:000132fc       _write                     00000001400142fc f   libucrt:write.obj
 0001:000133e8       _write_nolock              00000001400143e8 f   libucrt:write.obj
 0001:000136c4       ?__mbrtoc32_utf8@__crt_mbstring@@YA_KPEA_UPEBD_KPEAU_Mbstatet@@@Z 00000001400146c4 f   libucrt:mbrtoc32.obj
 0001:000138a0       fegetenv                   00000001400148a0 f   libucrt:fegetenv.obj
 0001:000138c0       fesetenv                   00000001400148c0 f   libucrt:fesetenv.obj
 0001:0001390c       feholdexcept               000000014001490c f   libucrt:feholdexcept.obj
 0001:0001395c       ceil                       000000014001495c f   libucrt:ceil.obj
 0001:00013a20       log10                      0000000140014a20 f   libucrt:log10.obj
 0001:00014068       _lseeki64_nolock           0000000140015068 f   libucrt:lseek.obj
 0001:00014070       _fclose_nolock             0000000140015070 f   libucrt:fclose.obj
 0001:000140f4       fclose                     00000001400150f4 f   libucrt:fclose.obj
 0001:00014158       __strncnt                  0000000140015158 f   libucrt:strncnt.obj
 0001:00014170       _putwch_nolock             0000000140015170 f   libucrt:putwch.obj
 0001:000141ac       __acrt_fenv_get_control    00000001400151ac f   libucrt:_fenvutils.obj
 0001:000142a0       __acrt_fenv_get_status     00000001400152a0 f   libucrt:_fenvutils.obj
 0001:000142f4       __acrt_fenv_set_control    00000001400152f4 f   libucrt:_fenvutils.obj
 0001:0001443c       __acrt_fenv_set_status     000000014001543c f   libucrt:_fenvutils.obj
 0001:000144c0       _clearfp                   00000001400154c0 f   libucrt:ieee.obj
 0001:00014654       _handle_error              0000000140015654 f   libucrt:libm_error.obj
 0001:0001477c       _handle_nan                000000014001577c f   libucrt:libm_error.obj
 0001:000147a0       __acrt_initialize_fma3     00000001400157a0 f   libucrt:fma3_available.obj
 0001:00014810       _log10_special             0000000140015810 f   libucrt:log_special.obj
 0001:0001493c       _close                     000000014001593c f   libucrt:close.obj
 0001:000149e0       _close_nolock              00000001400159e0 f   libucrt:close.obj
 0001:00014aa0       ?__acrt_stdio_free_stream@@YAXV__crt_stdio_stream@@@Z 0000000140015aa0 f   libucrt:stream.obj
 0001:00014abc       __dcrt_lowio_ensure_console_output_initialized 0000000140015abc f   libucrt:initcon.obj
 0001:00014b10       __dcrt_terminate_console_output 0000000140015b10 f   libucrt:initcon.obj
 0001:00014b2c       __dcrt_write_console       0000000140015b2c f   libucrt:initcon.obj
 0001:00014c00       _get_fpsr                  0000000140015c00 f   libucrt:fpsr.obj
 0001:00014c10       _set_fpsr                  0000000140015c10 f   libucrt:fpsr.obj
 0001:00014c1a       _fclrf                     0000000140015c1a f   libucrt:fpsr.obj
 0001:00014c2e       _frnd                      0000000140015c2e f   libucrt:fpsr.obj
 0001:00014c50       _raise_exc                 0000000140015c50 f   libucrt:fpexcept.obj
 0001:00014c78       _raise_exc_ex              0000000140015c78 f   libucrt:fpexcept.obj
 0001:00014f88       _set_errno_from_matherr    0000000140015f88 f   libucrt:fpexcept.obj
 0001:00014fb8       _clrfp                     0000000140015fb8 f   libucrt:fpctrl.obj
 0001:00014fd8       _ctrlfp                    0000000140015fd8 f   libucrt:fpctrl.obj
 0001:00015054       _set_statfp                0000000140016054 f   libucrt:fpctrl.obj
 0001:00015074       _statfp                    0000000140016074 f   libucrt:fpctrl.obj
 0001:00015085       IsProcessorFeaturePresent  0000000140016085 f   kernel32:KERNEL32.dll
 0001:0001508c       __GSHandlerCheck           000000014001608c f   LIBCMT:gshandler.obj
 0001:000150ac       __GSHandlerCheckCommon     00000001400160ac f   LIBCMT:gshandler.obj
 0001:00015120       __security_check_cookie    0000000140016120 f   LIBCMT:amdsecgs.obj
 0001:00015150       _FindPESection             0000000140016150 f   LIBCMT:pesect.obj
 0001:000151a0       _IsNonwritableInCurrentImage 00000001400161a0 f   LIBCMT:pesect.obj
 0001:000151f0       _ValidateImageBase         00000001400161f0 f   LIBCMT:pesect.obj
 0001:00015220       __raise_securityfailure    0000000140016220 f   LIBCMT:gs_report.obj
 0001:00015254       __report_gsfailure         0000000140016254 f   LIBCMT:gs_report.obj
 0001:000153b0       _alloca_probe              00000001400163b0 f   LIBCMT:chkstk.obj
 0001:000153b0       __chkstk                   00000001400163b0 f   LIBCMT:chkstk.obj
 0001:00015420       memcmp                     0000000140016420 f   libvcruntime:memcmp.obj
 0001:000154e8       strrchr                    00000001400164e8 f   libvcruntime:strrchr.obj
 0001:00015634       ??0__non_rtti_object@std@@QEAA@AEBV01@@Z 0000000140016634 f i libvcruntime:rtti.obj
 0001:00015674       ??0bad_cast@std@@QEAA@AEBV01@@Z 0000000140016674 f i libvcruntime:rtti.obj
 0001:000156b4       ??0bad_typeid@std@@QEAA@AEBV01@@Z 00000001400166b4 f i libvcruntime:rtti.obj
 0001:00015bd8       ?__construct_from_string_literal@__non_rtti_object@std@@SA?AV12@QEBD@Z 0000000140016bd8 f i libvcruntime:rtti.obj
 0001:00015bf0       ?__construct_from_string_literal@bad_cast@std@@SA?AV12@QEBD@Z 0000000140016bf0 f i libvcruntime:rtti.obj
 0001:00015c08       __RTDynamicCast            0000000140016c08 f   libvcruntime:rtti.obj
 0001:00015d80       _guard_dispatch_icall_nop  0000000140016d80 f   LIBCMT:guard_dispatch.obj
 0002:00000000       __imp_?GetCurSel@CTabLayoutUI@DuiLib@@QEBAHXZ 0000000140018000     DuiLib:DuiLib.dll
 0002:00000008       __imp_?GetText@CListTextElementUI@DuiLib@@QEBAPEB_WH@Z 0000000140018008     DuiLib:DuiLib.dll
 0002:00000010       __imp_?SetText@CListTextElementUI@DuiLib@@QEAAXHPEB_W@Z 0000000140018010     DuiLib:DuiLib.dll
 0002:00000018       __imp_??0CListTextElementUI@DuiLib@@QEAA@XZ 0000000140018018     DuiLib:DuiLib.dll
 0002:00000020       __imp_?IsEmpty@CDuiString@DuiLib@@QEBA_NXZ 0000000140018020     DuiLib:DuiLib.dll
 0002:00000028       __imp_??4CDuiString@DuiLib@@QEAAAEBV01@AEBV01@@Z 0000000140018028     DuiLib:DuiLib.dll
 0002:00000030       __imp_?Format@CDuiString@DuiLib@@QEAAHPEB_WZZ 0000000140018030     DuiLib:DuiLib.dll
 0002:00000038       __imp_?SmallFormat@CDuiString@DuiLib@@QEAAHPEB_WZZ 0000000140018038     DuiLib:DuiLib.dll
 0002:00000040       __imp_??BCDuiString@DuiLib@@QEBAPEB_WXZ 0000000140018040     DuiLib:DuiLib.dll
 0002:00000048       __imp_??YCDuiString@DuiLib@@QEAAAEBV01@PEB_W@Z 0000000140018048     DuiLib:DuiLib.dll
 0002:00000050       __imp_??4CDuiString@DuiLib@@QEAAAEBV01@PEB_W@Z 0000000140018050     DuiLib:DuiLib.dll
 0002:00000058       __imp_?GetLength@CDuiString@DuiLib@@QEBAHXZ 0000000140018058     DuiLib:DuiLib.dll
 0002:00000060       __imp_??0CDuiString@DuiLib@@QEAA@XZ 0000000140018060     DuiLib:DuiLib.dll
 0002:00000068       __imp_?GetData@CDuiString@DuiLib@@QEBAPEB_WXZ 0000000140018068     DuiLib:DuiLib.dll
 0002:00000070       __imp_?SelectItem@CTabLayoutUI@DuiLib@@QEAA_NH_N@Z 0000000140018070     DuiLib:DuiLib.dll
 0002:00000078       __imp_??8CDuiString@DuiLib@@QEBA_NPEB_W@Z 0000000140018078     DuiLib:DuiLib.dll
 0002:00000080       __imp_??0CDuiString@DuiLib@@QEAA@AEBV01@@Z 0000000140018080     DuiLib:DuiLib.dll
 0002:00000088       __imp_?FindControl@CPaintManagerUI@DuiLib@@QEBAPEAVCControlUI@2@PEB_W@Z 0000000140018088     DuiLib:DuiLib.dll
 0002:00000090       __imp_?CenterWindow@CWindowWnd@DuiLib@@QEAAXXZ 0000000140018090     DuiLib:DuiLib.dll
 0002:00000098       __imp_??1CDuiString@DuiLib@@QEAA@XZ 0000000140018098     DuiLib:DuiLib.dll
 0002:000000a0       __imp_??0CDuiString@DuiLib@@QEAA@PEB_WH@Z 00000001400180a0     DuiLib:DuiLib.dll
 0002:000000a8       __imp_?Create@CWindowWnd@DuiLib@@QEAAPEAUHWND__@@PEAU3@PEB_WKKHHHHPEAUHMENU__@@@Z 00000001400180a8     DuiLib:DuiLib.dll
 0002:000000b0       __imp_??0CWindowWnd@DuiLib@@QEAA@XZ 00000001400180b0     DuiLib:DuiLib.dll
 0002:000000b8       __imp_?GetMessageMap@CNotifyPump@DuiLib@@MEBAPEBUDUI_MSGMAP@2@XZ 00000001400180b8     DuiLib:DuiLib.dll
 0002:000000c0       __imp_??0CDuiStringPtrMap@DuiLib@@QEAA@H@Z 00000001400180c0     DuiLib:DuiLib.dll
 0002:000000c8       __imp_??1CDuiStringPtrMap@DuiLib@@QEAA@XZ 00000001400180c8     DuiLib:DuiLib.dll
 0002:000000d0       __imp_?GetSuperClassName@CWindowWnd@DuiLib@@MEBAPEB_WXZ 00000001400180d0     DuiLib:DuiLib.dll
 0002:000000d8       __imp_?HandleMessage@WindowImplBase@DuiLib@@UEAA_JI_K_J@Z 00000001400180d8     DuiLib:DuiLib.dll
 0002:000000e0       __imp_?OnFinalMessage@WindowImplBase@DuiLib@@UEAAXPEAUHWND__@@@Z 00000001400180e0     DuiLib:DuiLib.dll
 0002:000000e8       __imp_?OnClick@WindowImplBase@DuiLib@@MEAAXAEAUtagTNotifyUI@2@@Z 00000001400180e8     DuiLib:DuiLib.dll
 0002:000000f0       __imp_?ResponseDefaultKeyEvent@WindowImplBase@DuiLib@@MEAA_J_K@Z 00000001400180f0     DuiLib:DuiLib.dll
 0002:000000f8       __imp_?GetResourceType@WindowImplBase@DuiLib@@UEBA?AW4UILIB_RESOURCETYPE@2@XZ 00000001400180f8     DuiLib:DuiLib.dll
 0002:00000100       __imp_?GetZIPFileName@WindowImplBase@DuiLib@@UEBA?AVCDuiString@2@XZ 0000000140018100     DuiLib:DuiLib.dll
 0002:00000108       __imp_?GetResourceID@WindowImplBase@DuiLib@@UEBAPEB_WXZ 0000000140018108     DuiLib:DuiLib.dll
 0002:00000110       __imp_?OnClose@WindowImplBase@DuiLib@@UEAA_JI_K_JAEAH@Z 0000000140018110     DuiLib:DuiLib.dll
 0002:00000118       __imp_?OnDestroy@WindowImplBase@DuiLib@@UEAA_JI_K_JAEAH@Z 0000000140018118     DuiLib:DuiLib.dll
 0002:00000120       __imp_?OnNcActivate@WindowImplBase@DuiLib@@UEAA_JI_K_JAEAH@Z 0000000140018120     DuiLib:DuiLib.dll
 0002:00000128       __imp_?OnNcCalcSize@WindowImplBase@DuiLib@@UEAA_JI_K_JAEAH@Z 0000000140018128     DuiLib:DuiLib.dll
 0002:00000130       __imp_?OnNcPaint@WindowImplBase@DuiLib@@UEAA_JI_K_JAEAH@Z 0000000140018130     DuiLib:DuiLib.dll
 0002:00000138       __imp_?OnNcHitTest@WindowImplBase@DuiLib@@UEAA_JI_K_JAEAH@Z 0000000140018138     DuiLib:DuiLib.dll
 0002:00000140       __imp_?OnGetMinMaxInfo@WindowImplBase@DuiLib@@UEAA_JI_K_JAEAH@Z 0000000140018140     DuiLib:DuiLib.dll
 0002:00000148       __imp_?OnMouseWheel@WindowImplBase@DuiLib@@UEAA_JI_K_JAEAH@Z 0000000140018148     DuiLib:DuiLib.dll
 0002:00000150       __imp_?OnMouseHover@WindowImplBase@DuiLib@@UEAA_JI_K_JAEAH@Z 0000000140018150     DuiLib:DuiLib.dll
 0002:00000158       __imp_?OnSize@WindowImplBase@DuiLib@@UEAA_JI_K_JAEAH@Z 0000000140018158     DuiLib:DuiLib.dll
 0002:00000160       __imp_?OnChar@WindowImplBase@DuiLib@@UEAA_JI_K_JAEAH@Z 0000000140018160     DuiLib:DuiLib.dll
 0002:00000168       __imp_?OnSysCommand@WindowImplBase@DuiLib@@UEAA_JI_K_JAEAH@Z 0000000140018168     DuiLib:DuiLib.dll
 0002:00000170       __imp_?OnCreate@WindowImplBase@DuiLib@@UEAA_JI_K_JAEAH@Z 0000000140018170     DuiLib:DuiLib.dll
 0002:00000178       __imp_?OnKeyDown@WindowImplBase@DuiLib@@UEAA_JI_K_JAEAH@Z 0000000140018178     DuiLib:DuiLib.dll
 0002:00000180       __imp_?SetInstance@CPaintManagerUI@DuiLib@@SAXPEAUHINSTANCE__@@@Z 0000000140018180     DuiLib:DuiLib.dll
 0002:00000188       __imp_?ShowModal@CWindowWnd@DuiLib@@QEAAIXZ 0000000140018188     DuiLib:DuiLib.dll
 0002:00000190       __imp_?GetClassStyle@WindowImplBase@DuiLib@@UEBAIXZ 0000000140018190     DuiLib:DuiLib.dll
 0002:00000198       __imp_??1CPaintManagerUI@DuiLib@@QEAA@XZ 0000000140018198     DuiLib:DuiLib.dll
 0002:000001a0       __imp_??0CPaintManagerUI@DuiLib@@QEAA@XZ 00000001400181a0     DuiLib:DuiLib.dll
 0002:000001a8       __imp_?CreateControl@WindowImplBase@DuiLib@@UEAAPEAVCControlUI@2@PEB_W@Z 00000001400181a8     DuiLib:DuiLib.dll
 0002:000001b0       __imp_?MessageHandler@WindowImplBase@DuiLib@@UEAA_JI_K_JAEA_N@Z 00000001400181b0     DuiLib:DuiLib.dll
 0002:000001b8       __imp_?Notify@WindowImplBase@DuiLib@@UEAAXAEAUtagTNotifyUI@2@@Z 00000001400181b8     DuiLib:DuiLib.dll
 0002:000001c0       __imp_?GetMessageMap@WindowImplBase@DuiLib@@MEBAPEBUDUI_MSGMAP@2@XZ 00000001400181c0     DuiLib:DuiLib.dll
 0002:000001c8       __imp_?GetStyle@WindowImplBase@DuiLib@@UEAAJXZ 00000001400181c8     DuiLib:DuiLib.dll
 0002:000001d0       __imp_?HandleCustomMessage@WindowImplBase@DuiLib@@UEAA_JI_K_JAEAH@Z 00000001400181d0     DuiLib:DuiLib.dll
 0002:000001d8       __imp_?OnMouseMove@WindowImplBase@DuiLib@@UEAA_JI_K_JAEAH@Z 00000001400181d8     DuiLib:DuiLib.dll
 0002:000001e0       __imp_?OnLButtonUp@WindowImplBase@DuiLib@@UEAA_JI_K_JAEAH@Z 00000001400181e0     DuiLib:DuiLib.dll
 0002:000001e8       __imp_?OnLButtonDown@WindowImplBase@DuiLib@@UEAA_JI_K_JAEAH@Z 00000001400181e8     DuiLib:DuiLib.dll
 0002:000001f0       __imp_?OnSetFocus@WindowImplBase@DuiLib@@UEAA_JI_K_JAEAH@Z 00000001400181f0     DuiLib:DuiLib.dll
 0002:000001f8       __imp_?OnKillFocus@WindowImplBase@DuiLib@@UEAA_JI_K_JAEAH@Z 00000001400181f8     DuiLib:DuiLib.dll
 0002:00000200       \177DuiLib_NULL_THUNK_DATA 0000000140018200     DuiLib:DuiLib.dll
 0002:00000208       __imp_LCMapStringW         0000000140018208     kernel32:KERNEL32.dll
 0002:00000210       __imp_SetFilePointerEx     0000000140018210     kernel32:KERNEL32.dll
 0002:00000218       __imp_HeapSize             0000000140018218     kernel32:KERNEL32.dll
 0002:00000220       __imp_HeapReAlloc          0000000140018220     kernel32:KERNEL32.dll
 0002:00000228       __imp_FlushFileBuffers     0000000140018228     kernel32:KERNEL32.dll
 0002:00000230       __imp_GetConsoleCP         0000000140018230     kernel32:KERNEL32.dll
 0002:00000238       __imp_GetConsoleMode       0000000140018238     kernel32:KERNEL32.dll
 0002:00000240       __imp_WriteConsoleW        0000000140018240     kernel32:KERNEL32.dll
 0002:00000248       __imp_ReadFile             0000000140018248     kernel32:KERNEL32.dll
 0002:00000250       __imp_GetFileSize          0000000140018250     kernel32:KERNEL32.dll
 0002:00000258       __imp_WritePrivateProfileStringW 0000000140018258     kernel32:KERNEL32.dll
 0002:00000260       __imp_GetPrivateProfileStringW 0000000140018260     kernel32:KERNEL32.dll
 0002:00000268       __imp_GetModuleFileNameW   0000000140018268     kernel32:KERNEL32.dll
 0002:00000270       __imp_MultiByteToWideChar  0000000140018270     kernel32:KERNEL32.dll
 0002:00000278       __imp_GetCurrentDirectoryW 0000000140018278     kernel32:KERNEL32.dll
 0002:00000280       __imp_WriteFile            0000000140018280     kernel32:KERNEL32.dll
 0002:00000288       __imp_CreateFileW          0000000140018288     kernel32:KERNEL32.dll
 0002:00000290       __imp_CloseHandle          0000000140018290     kernel32:KERNEL32.dll
 0002:00000298       __imp_ResumeThread         0000000140018298     kernel32:KERNEL32.dll
 0002:000002a0       __imp_SetThreadContext     00000001400182a0     kernel32:KERNEL32.dll
 0002:000002a8       __imp_WriteProcessMemory   00000001400182a8     kernel32:KERNEL32.dll
 0002:000002b0       __imp_IsDebuggerPresent    00000001400182b0     kernel32:KERNEL32.dll
 0002:000002b8       __imp_VirtualAllocEx       00000001400182b8     kernel32:KERNEL32.dll
 0002:000002c0       __imp_GetThreadContext     00000001400182c0     kernel32:KERNEL32.dll
 0002:000002c8       __imp_CreateProcessW       00000001400182c8     kernel32:KERNEL32.dll
 0002:000002d0       __imp_VirtualFree          00000001400182d0     kernel32:KERNEL32.dll
 0002:000002d8       __imp_VirtualAlloc         00000001400182d8     kernel32:KERNEL32.dll
 0002:000002e0       __imp_HeapFree             00000001400182e0     kernel32:KERNEL32.dll
 0002:000002e8       __imp_GetProcessHeap       00000001400182e8     kernel32:KERNEL32.dll
 0002:000002f0       __imp_HeapAlloc            00000001400182f0     kernel32:KERNEL32.dll
 0002:000002f8       __imp_LoadLibraryW         00000001400182f8     kernel32:KERNEL32.dll
 0002:00000300       __imp_GetProcAddress       0000000140018300     kernel32:KERNEL32.dll
 0002:00000308       __imp_WideCharToMultiByte  0000000140018308     kernel32:KERNEL32.dll
 0002:00000310       __imp_GlobalUnlock         0000000140018310     kernel32:KERNEL32.dll
 0002:00000318       __imp_GlobalLock           0000000140018318     kernel32:KERNEL32.dll
 0002:00000320       __imp_GlobalAlloc          0000000140018320     kernel32:KERNEL32.dll
 0002:00000328       __imp_GetStringTypeW       0000000140018328     kernel32:KERNEL32.dll
 0002:00000330       __imp_SetStdHandle         0000000140018330     kernel32:KERNEL32.dll
 0002:00000338       __imp_FreeEnvironmentStringsW 0000000140018338     kernel32:KERNEL32.dll
 0002:00000340       __imp_GetEnvironmentStringsW 0000000140018340     kernel32:KERNEL32.dll
 0002:00000348       __imp_GetCommandLineW      0000000140018348     kernel32:KERNEL32.dll
 0002:00000350       __imp_GetCommandLineA      0000000140018350     kernel32:KERNEL32.dll
 0002:00000358       __imp_GetCPInfo            0000000140018358     kernel32:KERNEL32.dll
 0002:00000360       __imp_QueryPerformanceCounter 0000000140018360     kernel32:KERNEL32.dll
 0002:00000368       __imp_GetCurrentProcessId  0000000140018368     kernel32:KERNEL32.dll
 0002:00000370       __imp_GetCurrentThreadId   0000000140018370     kernel32:KERNEL32.dll
 0002:00000378       __imp_GetSystemTimeAsFileTime 0000000140018378     kernel32:KERNEL32.dll
 0002:00000380       __imp_InitializeSListHead  0000000140018380     kernel32:KERNEL32.dll
 0002:00000388       __imp_RtlCaptureContext    0000000140018388     kernel32:KERNEL32.dll
 0002:00000390       __imp_RtlLookupFunctionEntry 0000000140018390     kernel32:KERNEL32.dll
 0002:00000398       __imp_RtlVirtualUnwind     0000000140018398     kernel32:KERNEL32.dll
 0002:000003a0       __imp_UnhandledExceptionFilter 00000001400183a0     kernel32:KERNEL32.dll
 0002:000003a8       __imp_SetUnhandledExceptionFilter 00000001400183a8     kernel32:KERNEL32.dll
 0002:000003b0       __imp_GetStartupInfoW      00000001400183b0     kernel32:KERNEL32.dll
 0002:000003b8       __imp_IsProcessorFeaturePresent 00000001400183b8     kernel32:KERNEL32.dll
 0002:000003c0       __imp_GetModuleHandleW     00000001400183c0     kernel32:KERNEL32.dll
 0002:000003c8       __imp_RtlUnwindEx          00000001400183c8     kernel32:KERNEL32.dll
 0002:000003d0       __imp_RtlPcToFileHeader    00000001400183d0     kernel32:KERNEL32.dll
 0002:000003d8       __imp_RaiseException       00000001400183d8     kernel32:KERNEL32.dll
 0002:000003e0       __imp_GetLastError         00000001400183e0     kernel32:KERNEL32.dll
 0002:000003e8       __imp_SetLastError         00000001400183e8     kernel32:KERNEL32.dll
 0002:000003f0       __imp_EncodePointer        00000001400183f0     kernel32:KERNEL32.dll
 0002:000003f8       __imp_EnterCriticalSection 00000001400183f8     kernel32:KERNEL32.dll
 0002:00000400       __imp_LeaveCriticalSection 0000000140018400     kernel32:KERNEL32.dll
 0002:00000408       __imp_DeleteCriticalSection 0000000140018408     kernel32:KERNEL32.dll
 0002:00000410       __imp_InitializeCriticalSectionAndSpinCount 0000000140018410     kernel32:KERNEL32.dll
 0002:00000418       __imp_TlsAlloc             0000000140018418     kernel32:KERNEL32.dll
 0002:00000420       __imp_TlsGetValue          0000000140018420     kernel32:KERNEL32.dll
 0002:00000428       __imp_TlsSetValue          0000000140018428     kernel32:KERNEL32.dll
 0002:00000430       __imp_TlsFree              0000000140018430     kernel32:KERNEL32.dll
 0002:00000438       __imp_FreeLibrary          0000000140018438     kernel32:KERNEL32.dll
 0002:00000440       __imp_LoadLibraryExW       0000000140018440     kernel32:KERNEL32.dll
 0002:00000448       __imp_GetStdHandle         0000000140018448     kernel32:KERNEL32.dll
 0002:00000450       __imp_GetCurrentProcess    0000000140018450     kernel32:KERNEL32.dll
 0002:00000458       __imp_ExitProcess          0000000140018458     kernel32:KERNEL32.dll
 0002:00000460       __imp_TerminateProcess     0000000140018460     kernel32:KERNEL32.dll
 0002:00000468       __imp_GetModuleHandleExW   0000000140018468     kernel32:KERNEL32.dll
 0002:00000470       __imp_GetFileType          0000000140018470     kernel32:KERNEL32.dll
 0002:00000478       __imp_FindClose            0000000140018478     kernel32:KERNEL32.dll
 0002:00000480       __imp_FindFirstFileExW     0000000140018480     kernel32:KERNEL32.dll
 0002:00000488       __imp_FindNextFileW        0000000140018488     kernel32:KERNEL32.dll
 0002:00000490       __imp_IsValidCodePage      0000000140018490     kernel32:KERNEL32.dll
 0002:00000498       __imp_GetACP               0000000140018498     kernel32:KERNEL32.dll
 0002:000004a0       __imp_GetOEMCP             00000001400184a0     kernel32:KERNEL32.dll
 0002:000004a8       \177KERNEL32_NULL_THUNK_DATA 00000001400184a8     kernel32:KERNEL32.dll
 0002:000004b0       __imp_DragFinish           00000001400184b0     shell32:SHELL32.dll
 0002:000004b8       __imp_SHBrowseForFolderW   00000001400184b8     shell32:SHELL32.dll
 0002:000004c0       __imp_SHGetPathFromIDListW 00000001400184c0     shell32:SHELL32.dll
 0002:000004c8       __imp_DragQueryFileW       00000001400184c8     shell32:SHELL32.dll
 0002:000004d0       \177SHELL32_NULL_THUNK_DATA 00000001400184d0     shell32:SHELL32.dll
 0002:000004d8       __imp_StrStrW              00000001400184d8     Shlwapi:SHLWAPI.dll
 0002:000004e0       \177SHLWAPI_NULL_THUNK_DATA 00000001400184e0     Shlwapi:SHLWAPI.dll
 0002:000004e8       __imp_MessageBoxW          00000001400184e8     user32:USER32.dll
 0002:000004f0       __imp_OpenClipboard        00000001400184f0     user32:USER32.dll
 0002:000004f8       __imp_EmptyClipboard       00000001400184f8     user32:USER32.dll
 0002:00000500       __imp_SetClipboardData     0000000140018500     user32:USER32.dll
 0002:00000508       __imp_CloseClipboard       0000000140018508     user32:USER32.dll
 0002:00000510       \177USER32_NULL_THUNK_DATA 0000000140018510     user32:USER32.dll
 0002:00000518       __imp_CoUninitialize       0000000140018518     ole32:ole32.dll
 0002:00000520       __imp_OleUninitialize      0000000140018520     ole32:ole32.dll
 0002:00000528       __imp_OleInitialize        0000000140018528     ole32:ole32.dll
 0002:00000530       __imp_CoInitialize         0000000140018530     ole32:ole32.dll
 0002:00000538       \177ole32_NULL_THUNK_DATA  0000000140018538     ole32:ole32.dll
 0002:00000540       __guard_check_icall_fptr   0000000140018540     LIBCMT:guard_support.obj
 0002:00000548       __guard_dispatch_icall_fptr 0000000140018548     LIBCMT:guard_support.obj
 0002:00000550       __xc_a                     0000000140018550     LIBCMT:initializers.obj
 0002:00000560       __xc_z                     0000000140018560     LIBCMT:initializers.obj
 0002:00000568       __xi_a                     0000000140018568     LIBCMT:initializers.obj
 0002:00000580       __acrt_stdio_initializer   0000000140018580     libucrt:stdio_initializer.obj
 0002:00000588       __acrt_multibyte_initializer 0000000140018588     libucrt:multibyte_initializer.obj
 0002:00000590       __acrt_tran_fma3_initializer 0000000140018590     libucrt:fma3_initializer.obj
 0002:00000598       __xi_z                     0000000140018598     LIBCMT:initializers.obj
 0002:000005a0       __xp_a                     00000001400185a0     LIBCMT:initializers.obj
 0002:000005a8       __acrt_locale_terminator   00000001400185a8     libucrt:locale_initializer.obj
 0002:000005b0       __dcrt_console_output_terminator 00000001400185b0     libucrt:console_output_initializer.obj
 0002:000005b8       __acrt_stdio_terminator    00000001400185b8     libucrt:stdio_initializer.obj
 0002:000005c0       __xp_z                     00000001400185c0     LIBCMT:initializers.obj
 0002:000005c8       __xt_a                     00000001400185c8     LIBCMT:initializers.obj
 0002:000005d0       __xt_z                     00000001400185d0     LIBCMT:initializers.obj
 0002:000005e8       ??_7type_info@@6B@         00000001400185e8     LIBCMT:std_type_info_static.obj
 0002:000005f8       ??_7exception@std@@6B@     00000001400185f8     LIBCMT:throw_bad_alloc.obj
 0002:00000608       ??_C@_0BC@EOODALEL@Unknown?5exception@ 0000000140018608     LIBCMT:throw_bad_alloc.obj
 0002:00000628       ??_7bad_alloc@std@@6B@     0000000140018628     LIBCMT:throw_bad_alloc.obj
 0002:00000638       ??_C@_0P@GHFPNOJB@bad?5allocation@ 0000000140018638     LIBCMT:throw_bad_alloc.obj
 0002:00000650       ??_7bad_array_new_length@std@@6B@ 0000000140018650     LIBCMT:throw_bad_alloc.obj
 0002:00000660       ??_C@_0BF@KINCDENJ@bad?5array?5new?5length@ 0000000140018660     LIBCMT:throw_bad_alloc.obj
 0002:00000718       _pDestructExceptionObject  0000000140018718     libvcruntime:ehhelpers.obj
 0002:00000768       ??_7bad_exception@std@@6B@ 0000000140018768     libvcruntime:frame.obj
 0002:00000778       ??_C@_0O@DPKOEFFH@bad?5exception@ 0000000140018778     libvcruntime:frame.obj
 0002:000007a0       ??_C@_1DM@KHCHBNEB@?$AAa?$AAp?$AAi?$AA?9?$AAm?$AAs?$AA?9?$AAw?$AAi?$AAn?$AA?9?$AAc?$AAo?$AAr?$AAe@ 00000001400187a0     libvcruntime:winapi_downlevel.obj
 0002:000007e0       ??_C@_1DK@LPPGFMPP@?$AAa?$AAp?$AAi?$AA?9?$AAm?$AAs?$AA?9?$AAw?$AAi?$AAn?$AA?9?$AAc?$AAo?$AAr?$AAe@ 00000001400187e0     libvcruntime:winapi_downlevel.obj
 0002:00000820       ??_C@_1BC@GDMECMAK@?$AAk?$AAe?$AAr?$AAn?$AAe?$AAl?$AA3?$AA2@ 0000000140018820     libvcruntime:winapi_downlevel.obj
 0002:00000838       ??_C@_1BA@PFFKHIOG@?$AAa?$AAp?$AAi?$AA?9?$AAm?$AAs?$AA?9@ 0000000140018838     libvcruntime:winapi_downlevel.obj
 0002:00000848       ??_C@_1BA@IAIFMGEF@?$AAe?$AAx?$AAt?$AA?9?$AAm?$AAs?$AA?9@ 0000000140018848     libvcruntime:winapi_downlevel.obj
 0002:00000860       ??_C@_08KNHFBNJ@FlsAlloc@  0000000140018860     libvcruntime:winapi_downlevel.obj
 0002:00000878       ??_C@_07PEJMOBNF@FlsFree@  0000000140018878     libvcruntime:winapi_downlevel.obj
 0002:00000888       ??_C@_0M@GDNOONDI@FlsGetValue@ 0000000140018888     libvcruntime:winapi_downlevel.obj
 0002:000008a0       ??_C@_0M@JCPCPOEF@FlsSetValue@ 00000001400188a0     libvcruntime:winapi_downlevel.obj
 0002:000008b8       ??_C@_0BM@HCFOFFN@InitializeCriticalSectionEx@ 00000001400188b8     libvcruntime:winapi_downlevel.obj
 0002:00000c18       ??_C@_08EHJDFFNH@__based?$CI@ 0000000140018c18     libvcruntime:undname.obj
 0002:00000c28       ??_C@_07KOLFKCDI@__cdecl@  0000000140018c28     libvcruntime:undname.obj
 0002:00000c30       ??_C@_08GHMPAG@__pascal@   0000000140018c30     libvcruntime:undname.obj
 0002:00000c40       ??_C@_09IFJBGAPI@__stdcall@ 0000000140018c40     libvcruntime:undname.obj
 0002:00000c50       ??_C@_0L@NPHFGOKO@__thiscall@ 0000000140018c50     libvcruntime:undname.obj
 0002:00000c60       ??_C@_0L@JMKHOMEK@__fastcall@ 0000000140018c60     libvcruntime:undname.obj
 0002:00000c70       ??_C@_0N@BCKKPABJ@__vectorcall@ 0000000140018c70     libvcruntime:undname.obj
 0002:00000c80       ??_C@_09HIJEGCPM@__clrcall@ 0000000140018c80     libvcruntime:undname.obj
 0002:00000c8c       ??_C@_06GHPCKEAG@__eabi@   0000000140018c8c     libvcruntime:undname.obj
 0002:00000c98       ??_C@_09IOPIDJLG@__swift_1@ 0000000140018c98     libvcruntime:undname.obj
 0002:00000ca8       ??_C@_09KFNFGKHF@__swift_2@ 0000000140018ca8     libvcruntime:undname.obj
 0002:00000cb8       ??_C@_07JOMMBBKO@__ptr64@  0000000140018cb8     libvcruntime:undname.obj
 0002:00000cc0       ??_C@_0L@PILCLIHE@__restrict@ 0000000140018cc0     libvcruntime:undname.obj
 0002:00000cd0       ??_C@_0M@GFIIJFMG@__unaligned@ 0000000140018cd0     libvcruntime:undname.obj
 0002:00000ce0       ??_C@_09DHDLOLLB@restrict?$CI@ 0000000140018ce0     libvcruntime:undname.obj
 0002:00000cea       ??_C@_00CNPNBAHC@@         0000000140018cea     libvcruntime:undname.obj
 0002:00000cec       ??_C@_04NIHEBCM@?5new@     0000000140018cec     libvcruntime:undname.obj
 0002:00000cf8       ??_C@_07FPCDHGMM@?5delete@ 0000000140018cf8     libvcruntime:undname.obj
 0002:00000d00       ??_C@_01NEMOKFLO@?$DN@     0000000140018d00     libvcruntime:undname.obj
 0002:00000d04       ??_C@_02GPIOPFAK@?$DO?$DO@ 0000000140018d04     libvcruntime:undname.obj
 0002:00000d08       ??_C@_02FODMEDOG@?$DM?$DM@ 0000000140018d08     libvcruntime:undname.obj
 0002:00000d0c       ??_C@_01DCLJPIOD@?$CB@     0000000140018d0c     libvcruntime:undname.obj
 0002:00000d10       ??_C@_02EGOFBIJA@?$DN?$DN@ 0000000140018d10     libvcruntime:undname.obj
 0002:00000d14       ??_C@_02FDNJECIE@?$CB?$DN@ 0000000140018d14     libvcruntime:undname.obj
 0002:00000d18       ??_C@_02GPECMEKF@?$FL?$FN@ 0000000140018d18     libvcruntime:undname.obj
 0002:00000d20       ??_C@_08LHJFAFGD@operator@ 0000000140018d20     libvcruntime:undname.obj
 0002:00000d2c       ??_C@_02HBOOOICD@?9?$DO@   0000000140018d2c     libvcruntime:undname.obj
 0002:00000d30       ??_C@_01NBENCBCI@?$CK@     0000000140018d30     libvcruntime:undname.obj
 0002:00000d34       ??_C@_02ECNGHCIF@?$CL?$CL@ 0000000140018d34     libvcruntime:undname.obj
 0002:00000d38       ??_C@_02BAABKJLB@?9?9@     0000000140018d38     libvcruntime:undname.obj
 0002:00000d3c       ??_C@_01JOAMLHOP@?9@       0000000140018d3c     libvcruntime:undname.obj
 0002:00000d40       ??_C@_01MIFGBAGJ@?$CL@     0000000140018d40     libvcruntime:undname.obj
 0002:00000d44       ??_C@_01HNPIGOCE@?$CG@     0000000140018d44     libvcruntime:undname.obj
 0002:00000d48       ??_C@_03MNHNFDLC@?9?$DO?$CK@ 0000000140018d48     libvcruntime:undname.obj
 0002:00000d4c       ??_C@_01KMDKNFGN@?1@       0000000140018d4c     libvcruntime:undname.obj
 0002:00000d50       ??_C@_01FGNFDNOH@?$CF@     0000000140018d50     libvcruntime:undname.obj
 0002:00000d54       ??_C@_01MNNFJEPP@?$DM@     0000000140018d54     libvcruntime:undname.obj
 0002:00000d58       ??_C@_02EHCHHCKH@?$DM?$DN@ 0000000140018d58     libvcruntime:undname.obj
 0002:00000d5c       ??_C@_01PPODPGHN@?$DO@     0000000140018d5c     libvcruntime:undname.obj
 0002:00000d60       ??_C@_02EEKDKGMJ@?$DO?$DN@ 0000000140018d60     libvcruntime:undname.obj
 0002:00000d64       ??_C@_01IHBHIGKO@?0@       0000000140018d64     libvcruntime:undname.obj
 0002:00000d68       ??_C@_02HCKGKOFO@?$CI?$CJ@ 0000000140018d68     libvcruntime:undname.obj
 0002:00000d6c       ??_C@_01PJKLJHI@?$HO@      0000000140018d6c     libvcruntime:undname.obj
 0002:00000d70       ??_C@_01JKBOJNNK@?$FO@     0000000140018d70     libvcruntime:undname.obj
 0002:00000d74       ??_C@_01DNKMNLPK@?$HM@     0000000140018d74     libvcruntime:undname.obj
 0002:00000d78       ??_C@_02PPKAJPJL@?$CG?$CG@ 0000000140018d78     libvcruntime:undname.obj
 0002:00000d7c       ??_C@_02NONPIBCD@?$HM?$HM@ 0000000140018d7c     libvcruntime:undname.obj
 0002:00000d80       ??_C@_02FPIMKNGF@?$CK?$DN@ 0000000140018d80     libvcruntime:undname.obj
 0002:00000d84       ??_C@_02FOEOMHFC@?$CL?$DN@ 0000000140018d84     libvcruntime:undname.obj
 0002:00000d88       ??_C@_02FKMDLLOA@?9?$DN@   0000000140018d88     libvcruntime:undname.obj
 0002:00000d8c       ??_C@_02FJEHGPIO@?1?$DN@   0000000140018d8c     libvcruntime:undname.obj
 0002:00000d90       ??_C@_02FENAOKFI@?$CF?$DN@ 0000000140018d90     libvcruntime:undname.obj
 0002:00000d94       ??_C@_03IKFCCPFF@?$DO?$DO?$DN@ 0000000140018d94     libvcruntime:undname.obj
 0002:00000d98       ??_C@_03CDNPDDLA@?$DM?$DM?$DN@ 0000000140018d98     libvcruntime:undname.obj
 0002:00000d9c       ??_C@_02FGJGFEAB@?$CG?$DN@ 0000000140018d9c     libvcruntime:undname.obj
 0002:00000da0       ??_C@_02DHLNPPGH@?$HM?$DN@ 0000000140018da0     libvcruntime:undname.obj
 0002:00000da4       ??_C@_02MHEGNOJ@?$FO?$DN@  0000000140018da4     libvcruntime:undname.obj
 0002:00000da8       ??_C@_09IFPLHPGF@?$GAvftable?8@ 0000000140018da8     libvcruntime:undname.obj
 0002:00000db8       ??_C@_09BLBHBJP@?$GAvbtable?8@ 0000000140018db8     libvcruntime:undname.obj
 0002:00000dc8       ??_C@_07FEEIOKP@?$GAvcall?8@ 0000000140018dc8     libvcruntime:undname.obj
 0002:00000dd0       ??_C@_08LLFFHHDJ@?$GAtypeof?8@ 0000000140018dd0     libvcruntime:undname.obj
 0002:00000de0       ??_C@_0BF@KDPPACIK@?$GAlocal?5static?5guard?8@ 0000000140018de0     libvcruntime:undname.obj
 0002:00000df8       ??_C@_08OBABFOLI@?$GAstring?8@ 0000000140018df8     libvcruntime:undname.obj
 0002:00000e08       ??_C@_0BD@JDLKDPAB@?$GAvbase?5destructor?8@ 0000000140018e08     libvcruntime:undname.obj
 0002:00000e20       ??_C@_0BN@DEGPLNFK@?$GAvector?5deleting?5destructor?8@ 0000000140018e20     libvcruntime:undname.obj
 0002:00000e40       ??_C@_0BO@OBMKPJIG@?$GAdefault?5constructor?5closure?8@ 0000000140018e40     libvcruntime:undname.obj
 0002:00000e60       ??_C@_0BN@IMDCHIKM@?$GAscalar?5deleting?5destructor?8@ 0000000140018e60     libvcruntime:undname.obj
 0002:00000e80       ??_C@_0BO@PFGOCPJJ@?$GAvector?5constructor?5iterator?8@ 0000000140018e80     libvcruntime:undname.obj
 0002:00000ea0       ??_C@_0BN@LFPFMEDL@?$GAvector?5destructor?5iterator?8@ 0000000140018ea0     libvcruntime:undname.obj
 0002:00000ec0       ??_C@_0CE@IKBNEHA@?$GAvector?5vbase?5constructor?5itera@ 0000000140018ec0     libvcruntime:undname.obj
 0002:00000ee8       ??_C@_0BL@NILFHHPC@?$GAvirtual?5displacement?5map?8@ 0000000140018ee8     libvcruntime:undname.obj
 0002:00000f08       ??_C@_0CB@JONCMFFK@?$GAeh?5vector?5constructor?5iterator@ 0000000140018f08     libvcruntime:undname.obj
 0002:00000f30       ??_C@_0CA@GCEOPDGL@?$GAeh?5vector?5destructor?5iterator?8@ 0000000140018f30     libvcruntime:undname.obj
 0002:00000f50       ??_C@_0CH@OOJPLCPH@?$GAeh?5vector?5vbase?5constructor?5it@ 0000000140018f50     libvcruntime:undname.obj
 0002:00000f78       ??_C@_0BL@LLKPOHJI@?$GAcopy?5constructor?5closure?8@ 0000000140018f78     libvcruntime:undname.obj
 0002:00000f98       ??_C@_0BA@KBCDOMBN@?$GAudt?5returning?8@ 0000000140018f98     libvcruntime:undname.obj
 0002:00000fa8       ??_C@_03KLGMFNMG@?$GAEH@   0000000140018fa8     libvcruntime:undname.obj
 0002:00000fac       ??_C@_05KHLCHHI@?$GARTTI@  0000000140018fac     libvcruntime:undname.obj
 0002:00000fb8       ??_C@_0BA@KKLDJDLB@?$GAlocal?5vftable?8@ 0000000140018fb8     libvcruntime:undname.obj
 0002:00000fc8       ??_C@_0CE@IIHCMGGL@?$GAlocal?5vftable?5constructor?5clos@ 0000000140018fc8     libvcruntime:undname.obj
 0002:00000fec       ??_C@_06FHBGPFGH@?5new?$FL?$FN@ 0000000140018fec     libvcruntime:undname.obj
 0002:00000ff8       ??_C@_09LBNFPBCA@?5delete?$FL?$FN@ 0000000140018ff8     libvcruntime:undname.obj
 0002:00001008       ??_C@_0P@HJKNJFNN@?$GAomni?5callsig?8@ 0000000140019008     libvcruntime:undname.obj
 0002:00001018       ??_C@_0BL@CNOONJFP@?$GAplacement?5delete?5closure?8@ 0000000140019018     libvcruntime:undname.obj
 0002:00001038       ??_C@_0BN@CKNJLHMB@?$GAplacement?5delete?$FL?$FN?5closure?8@ 0000000140019038     libvcruntime:undname.obj
 0002:00001058       ??_C@_0CG@CFDHKGGD@?$GAmanaged?5vector?5constructor?5ite@ 0000000140019058     libvcruntime:undname.obj
 0002:00001080       ??_C@_0CF@IMGKMJNO@?$GAmanaged?5vector?5destructor?5iter@ 0000000140019080     libvcruntime:undname.obj
 0002:000010a8       ??_C@_0CG@HLDDJMAG@?$GAeh?5vector?5copy?5constructor?5ite@ 00000001400190a8     libvcruntime:undname.obj
 0002:000010d0       ??_C@_0CM@FCBBDIGB@?$GAeh?5vector?5vbase?5copy?5construct@ 00000001400190d0     libvcruntime:undname.obj
 0002:00001100       ??_C@_0BL@CLIPGLGB@?$GAdynamic?5initializer?5for?5?8@ 0000000140019100     libvcruntime:undname.obj
 0002:00001120       ??_C@_0CB@PDBIFEP@?$GAdynamic?5atexit?5destructor?5for?5@ 0000000140019120     libvcruntime:undname.obj
 0002:00001148       ??_C@_0CD@CGAJBKEJ@?$GAvector?5copy?5constructor?5iterat@ 0000000140019148     libvcruntime:undname.obj
 0002:00001170       ??_C@_0CJ@GJELGAMM@?$GAvector?5vbase?5copy?5constructor?5@ 0000000140019170     libvcruntime:undname.obj
 0002:000011a0       ??_C@_0CL@FGIJHLCE@?$GAmanaged?5vector?5copy?5constructo@ 00000001400191a0     libvcruntime:undname.obj
 0002:000011d0       ??_C@_0BM@PMGGMLDN@?$GAlocal?5static?5thread?5guard?8@ 00000001400191d0     libvcruntime:undname.obj
 0002:000011f0       ??_C@_0N@BDNMDMOL@operator?5?$CC?$CC?5@ 00000001400191f0     libvcruntime:undname.obj
 0002:00001200       ??_C@_0BC@GGEBGALA@operator?5co_await@ 0000000140019200     libvcruntime:undname.obj
 0002:00001218       ??_C@_0BC@DAFEJGAK@?5Type?5Descriptor?8@ 0000000140019218     libvcruntime:undname.obj
 0002:00001230       ??_C@_0BM@LDKODKLH@?5Base?5Class?5Descriptor?5at?5?$CI@ 0000000140019230     libvcruntime:undname.obj
 0002:00001250       ??_C@_0BD@LGICGFMM@?5Base?5Class?5Array?8@ 0000000140019250     libvcruntime:undname.obj
 0002:00001268       ??_C@_0BN@MECKDCOJ@?5Class?5Hierarchy?5Descriptor?8@ 0000000140019268     libvcruntime:undname.obj
 0002:00001288       ??_C@_0BK@CFCOFLF@?5Complete?5Object?5Locator?8@ 0000000140019288     libvcruntime:undname.obj
 0002:000012b0       format_validation_lookup_table 00000001400192b0     libucrt:output.obj
 0002:00001310       ??_C@_1O@CEDCILHN@?$AA?$CI?$AAn?$AAu?$AAl?$AAl?$AA?$CJ@ 0000000140019310     libucrt:output.obj
 0002:00001320       ??_C@_06OJHGLDPL@?$CInull?$CJ@ 0000000140019320     libucrt:output.obj
 0002:00001330       __acrt_exception_action_table 0000000140019330     libucrt:exception_filter.obj
 0002:000013f0       __acrt_signal_action_table_count 00000001400193f0     libucrt:exception_filter.obj
 0002:000013f8       __acrt_signal_action_first_fpe_index 00000001400193f8     libucrt:exception_filter.obj
 0002:00001400       __acrt_signal_action_fpe_count 0000000140019400     libucrt:exception_filter.obj
 0002:00001408       ??_C@_1BI@BGOHAHKC@?$AAm?$AAs?$AAc?$AAo?$AAr?$AAe?$AAe?$AA?4?$AAd?$AAl?$AAl@ 0000000140019408     libucrt:exit.obj
 0002:00001420       ??_C@_0P@MIGLKIOC@CorExitProcess@ 0000000140019420     libucrt:exit.obj
 0002:00001720       ??_C@_03OEIAHPBN@INF@      0000000140019720     libucrt:cvt.obj
 0002:00001724       ??_C@_03OJHLLCGB@inf@      0000000140019724     libucrt:cvt.obj
 0002:00001728       ??_C@_03LKNCIKJB@NAN@      0000000140019728     libucrt:cvt.obj
 0002:0000172c       ??_C@_03LHCJEHON@nan@      000000014001972c     libucrt:cvt.obj
 0002:00001730       ??_C@_09OFJJIMPC@NAN?$CISNAN?$CJ@ 0000000140019730     libucrt:cvt.obj
 0002:00001740       ??_C@_09IPFBKMDL@nan?$CIsnan?$CJ@ 0000000140019740     libucrt:cvt.obj
 0002:00001750       ??_C@_08IKHNHAJ@NAN?$CIIND?$CJ@ 0000000140019750     libucrt:cvt.obj
 0002:00001760       ??_C@_08OFCDMILK@nan?$CIind?$CJ@ 0000000140019760     libucrt:cvt.obj
 0002:0000176c       ??_C@_05KLBDPFGC@e?$CL000@ 000000014001976c     libucrt:cvt.obj
 0002:00001780       __lc_time_c                0000000140019780     libucrt:nlsdata.obj
 0002:00001a40       ??_C@_03KOEHGMDN@Sun@      0000000140019a40     libucrt:nlsdata.obj
 0002:00001a44       ??_C@_03PDAGKDH@Mon@       0000000140019a44     libucrt:nlsdata.obj
 0002:00001a48       ??_C@_03NAGEINEP@Tue@      0000000140019a48     libucrt:nlsdata.obj
 0002:00001a4c       ??_C@_03MHOMLAJA@Wed@      0000000140019a4c     libucrt:nlsdata.obj
 0002:00001a50       ??_C@_03IOFIKPDN@Thu@      0000000140019a50     libucrt:nlsdata.obj
 0002:00001a54       ??_C@_03IDIOELNC@Fri@      0000000140019a54     libucrt:nlsdata.obj
 0002:00001a58       ??_C@_03FEFJNEK@Sat@       0000000140019a58     libucrt:nlsdata.obj
 0002:00001a5c       ??_C@_06OOPIFAJ@Sunday@    0000000140019a5c     libucrt:nlsdata.obj
 0002:00001a64       ??_C@_06JLEDEDGH@Monday@   0000000140019a64     libucrt:nlsdata.obj
 0002:00001a70       ??_C@_07BAAGCFCM@Tuesday@  0000000140019a70     libucrt:nlsdata.obj
 0002:00001a78       ??_C@_09DLIGFAKA@Wednesday@ 0000000140019a78     libucrt:nlsdata.obj
 0002:00001a88       ??_C@_08HACCIKIA@Thursday@ 0000000140019a88     libucrt:nlsdata.obj
 0002:00001a94       ??_C@_06JECMNKMI@Friday@   0000000140019a94     libucrt:nlsdata.obj
 0002:00001aa0       ??_C@_08INBOOONO@Saturday@ 0000000140019aa0     libucrt:nlsdata.obj
 0002:00001aac       ??_C@_03JIHJHPIE@Jan@      0000000140019aac     libucrt:nlsdata.obj
 0002:00001ab0       ??_C@_03HJBDCHOM@Feb@      0000000140019ab0     libucrt:nlsdata.obj
 0002:00001ab4       ??_C@_03ODNJBKGA@Mar@      0000000140019ab4     libucrt:nlsdata.obj
 0002:00001ab8       ??_C@_03LEOLGMJP@Apr@      0000000140019ab8     libucrt:nlsdata.obj
 0002:00001abc       ??_C@_03CNMDKL@May@        0000000140019abc     libucrt:nlsdata.obj
 0002:00001ac0       ??_C@_03IDFGHECI@Jun@      0000000140019ac0     libucrt:nlsdata.obj
 0002:00001ac4       ??_C@_03LBGABGKK@Jul@      0000000140019ac4     libucrt:nlsdata.obj
 0002:00001ac8       ??_C@_03IFJFEIGA@Aug@      0000000140019ac8     libucrt:nlsdata.obj
 0002:00001acc       ??_C@_03GGCAPAJC@Sep@      0000000140019acc     libucrt:nlsdata.obj
 0002:00001ad0       ??_C@_03BMAOKBAD@Oct@      0000000140019ad0     libucrt:nlsdata.obj
 0002:00001ad4       ??_C@_03JPJOFNIA@Nov@      0000000140019ad4     libucrt:nlsdata.obj
 0002:00001ad8       ??_C@_03MKABNOCG@Dec@      0000000140019ad8     libucrt:nlsdata.obj
 0002:00001ae0       ??_C@_07CGJPFGJA@January@  0000000140019ae0     libucrt:nlsdata.obj
 0002:00001ae8       ??_C@_08GNJGEPFN@February@ 0000000140019ae8     libucrt:nlsdata.obj
 0002:00001af4       ??_C@_05HPCKOFNC@March@    0000000140019af4     libucrt:nlsdata.obj
 0002:00001afc       ??_C@_05DMJDNLEJ@April@    0000000140019afc     libucrt:nlsdata.obj
 0002:00001b04       ??_C@_04CNLMGBGM@June@     0000000140019b04     libucrt:nlsdata.obj
 0002:00001b0c       ??_C@_04MIEPOIFP@July@     0000000140019b0c     libucrt:nlsdata.obj
 0002:00001b14       ??_C@_06LBBHFDDG@August@   0000000140019b14     libucrt:nlsdata.obj
 0002:00001b20       ??_C@_09BHHEALKD@September@ 0000000140019b20     libucrt:nlsdata.obj
 0002:00001b30       ??_C@_07JJNFCEND@October@  0000000140019b30     libucrt:nlsdata.obj
 0002:00001b38       ??_C@_08HCHEGEOA@November@ 0000000140019b38     libucrt:nlsdata.obj
 0002:00001b48       ??_C@_08EDHMEBNP@December@ 0000000140019b48     libucrt:nlsdata.obj
 0002:00001b54       ??_C@_02DEDBPAFC@AM@       0000000140019b54     libucrt:nlsdata.obj
 0002:00001b58       ??_C@_02CJNFDJBF@PM@       0000000140019b58     libucrt:nlsdata.obj
 0002:00001b60       ??_C@_08BPBNCDIB@MM?1dd?1yy@ 0000000140019b60     libucrt:nlsdata.obj
 0002:00001b70       ??_C@_0BE@CKGJFCPC@dddd?0?5MMMM?5dd?0?5yyyy@ 0000000140019b70     libucrt:nlsdata.obj
 0002:00001b88       ??_C@_08JCCMCCIL@HH?3mm?3ss@ 0000000140019b88     libucrt:nlsdata.obj
 0002:00001b98       ??_C@_17MBGCMIPB@?$AAS?$AAu?$AAn@ 0000000140019b98     libucrt:nlsdata.obj
 0002:00001ba0       ??_C@_17KBOMKBF@?$AAM?$AAo?$AAn@ 0000000140019ba0     libucrt:nlsdata.obj
 0002:00001ba8       ??_C@_17BMKGEGOJ@?$AAT?$AAu?$AAe@ 0000000140019ba8     libucrt:nlsdata.obj
 0002:00001bb0       ??_C@_17CJEDCEPE@?$AAW?$AAe?$AAd@ 0000000140019bb0     libucrt:nlsdata.obj
 0002:00001bb8       ??_C@_17PDPHAADD@?$AAT?$AAh?$AAu@ 0000000140019bb8     libucrt:nlsdata.obj
 0002:00001bc0       ??_C@_17HFOLPPLP@?$AAF?$AAr?$AAi@ 0000000140019bc0     libucrt:nlsdata.obj
 0002:00001bc8       ??_C@_17GGIBDPIH@?$AAS?$AAa?$AAt@ 0000000140019bc8     libucrt:nlsdata.obj
 0002:00001bd0       ??_C@_1O@IHNHDHPB@?$AAS?$AAu?$AAn?$AAd?$AAa?$AAy@ 0000000140019bd0     libucrt:nlsdata.obj
 0002:00001be0       ??_C@_1O@MMNBFLIA@?$AAM?$AAo?$AAn?$AAd?$AAa?$AAy@ 0000000140019be0     libucrt:nlsdata.obj
 0002:00001bf0       ??_C@_1BA@ENFBFFEK@?$AAT?$AAu?$AAe?$AAs?$AAd?$AAa?$AAy@ 0000000140019bf0     libucrt:nlsdata.obj
 0002:00001c00       ??_C@_1BE@EBOGMDOH@?$AAW?$AAe?$AAd?$AAn?$AAe?$AAs?$AAd?$AAa?$AAy@ 0000000140019c00     libucrt:nlsdata.obj
 0002:00001c18       ??_C@_1BC@HHMNLIHE@?$AAT?$AAh?$AAu?$AAr?$AAs?$AAd?$AAa?$AAy@ 0000000140019c18     libucrt:nlsdata.obj
 0002:00001c30       ??_C@_1O@PDICJHAG@?$AAF?$AAr?$AAi?$AAd?$AAa?$AAy@ 0000000140019c30     libucrt:nlsdata.obj
 0002:00001c40       ??_C@_1BC@ENMNNPAJ@?$AAS?$AAa?$AAt?$AAu?$AAr?$AAd?$AAa?$AAy@ 0000000140019c40     libucrt:nlsdata.obj
 0002:00001c58       ??_C@_17DKNBKCHM@?$AAJ?$AAa?$AAn@ 0000000140019c58     libucrt:nlsdata.obj
 0002:00001c60       ??_C@_17LMDJEKJN@?$AAF?$AAe?$AAb@ 0000000140019c60     libucrt:nlsdata.obj
 0002:00001c68       ??_C@_17CKNLEDEC@?$AAM?$AAa?$AAr@ 0000000140019c68     libucrt:nlsdata.obj
 0002:00001c70       ??_C@_17LFPOIHDD@?$AAA?$AAp?$AAr@ 0000000140019c70     libucrt:nlsdata.obj
 0002:00001c78       ??_C@_17PNNKMEED@?$AAM?$AAa?$AAy@ 0000000140019c78     libucrt:nlsdata.obj
 0002:00001c80       ??_C@_17KCJGOCPB@?$AAJ?$AAu?$AAn@ 0000000140019c80     libucrt:nlsdata.obj
 0002:00001c88       ??_C@_17IJPCKHK@?$AAJ?$AAu?$AAl@ 0000000140019c88     libucrt:nlsdata.obj
 0002:00001c90       ??_C@_17ICPELBCN@?$AAA?$AAu?$AAg@ 0000000140019c90     libucrt:nlsdata.obj
 0002:00001c98       ??_C@_17HCHCOKMG@?$AAS?$AAe?$AAp@ 0000000140019c98     libucrt:nlsdata.obj
 0002:00001ca0       ??_C@_17FNLKOI@?$AAO?$AAc?$AAt@ 0000000140019ca0     libucrt:nlsdata.obj
 0002:00001ca8       ??_C@_17BBDMLCIG@?$AAN?$AAo?$AAv@ 0000000140019ca8     libucrt:nlsdata.obj
 0002:00001cb0       ??_C@_17EGKACKIF@?$AAD?$AAe?$AAc@ 0000000140019cb0     libucrt:nlsdata.obj
 0002:00001cb8       ??_C@_1BA@EFMEIEBA@?$AAJ?$AAa?$AAn?$AAu?$AAa?$AAr?$AAy@ 0000000140019cb8     libucrt:nlsdata.obj
 0002:00001cc8       ??_C@_1BC@JGDDFFAM@?$AAF?$AAe?$AAb?$AAr?$AAu?$AAa?$AAr?$AAy@ 0000000140019cc8     libucrt:nlsdata.obj
 0002:00001ce0       ??_C@_1M@IKEENEDF@?$AAM?$AAa?$AAr?$AAc?$AAh@ 0000000140019ce0     libucrt:nlsdata.obj
 0002:00001cf0       ??_C@_1M@GJNLMHFD@?$AAA?$AAp?$AAr?$AAi?$AAl@ 0000000140019cf0     libucrt:nlsdata.obj
 0002:00001d00       ??_C@_19EPFLPGAP@?$AAJ?$AAu?$AAn?$AAe@ 0000000140019d00     libucrt:nlsdata.obj
 0002:00001d10       ??_C@_19BIFMLPCD@?$AAJ?$AAu?$AAl?$AAy@ 0000000140019d10     libucrt:nlsdata.obj
 0002:00001d20       ??_C@_1O@PAHLKOAC@?$AAA?$AAu?$AAg?$AAu?$AAs?$AAt@ 0000000140019d20     libucrt:nlsdata.obj
 0002:00001d30       ??_C@_1BE@DKAAMBJL@?$AAS?$AAe?$AAp?$AAt?$AAe?$AAm?$AAb?$AAe?$AAr@ 0000000140019d30     libucrt:nlsdata.obj
 0002:00001d48       ??_C@_1BA@EPANDLNG@?$AAO?$AAc?$AAt?$AAo?$AAb?$AAe?$AAr@ 0000000140019d48     libucrt:nlsdata.obj
 0002:00001d58       ??_C@_1BC@BGLIFPF@?$AAN?$AAo?$AAv?$AAe?$AAm?$AAb?$AAe?$AAr@ 0000000140019d58     libucrt:nlsdata.obj
 0002:00001d70       ??_C@_1BC@FEMKIFH@?$AAD?$AAe?$AAc?$AAe?$AAm?$AAb?$AAe?$AAr@ 0000000140019d70     libucrt:nlsdata.obj
 0002:00001d84       ??_C@_15ODEHAHHF@?$AAA?$AAM@ 0000000140019d84     libucrt:nlsdata.obj
 0002:00001d8c       ??_C@_15CLMNNGEL@?$AAP?$AAM@ 0000000140019d8c     libucrt:nlsdata.obj
 0002:00001d98       ??_C@_1BC@IEBCMHCM@?$AAM?$AAM?$AA?1?$AAd?$AAd?$AA?1?$AAy?$AAy@ 0000000140019d98     libucrt:nlsdata.obj
 0002:00001db0       ??_C@_1CI@KNAKOEBC@?$AAd?$AAd?$AAd?$AAd?$AA?0?$AA?5?$AAM?$AAM?$AAM?$AAM?$AA?5?$AAd?$AAd?$AA?0?$AA?5@ 0000000140019db0     libucrt:nlsdata.obj
 0002:00001dd8       ??_C@_1BC@GDGBMEMK@?$AAH?$AAH?$AA?3?$AAm?$AAm?$AA?3?$AAs?$AAs@ 0000000140019dd8     libucrt:nlsdata.obj
 0002:00001df0       ??_C@_1M@BMHNFIME@?$AAe?$AAn?$AA?9?$AAU?$AAS@ 0000000140019df0     libucrt:nlsdata.obj
 0002:00001e00       __newctype                 0000000140019e00     libucrt:ctype.obj
 0002:00002100       __newclmap                 000000014001a100     libucrt:ctype.obj
 0002:00002280       __newcumap                 000000014001a280     libucrt:ctype.obj
 0002:00002400       _wctype                    000000014001a400     libucrt:ctype.obj
 0002:00002628       ??_C@_1M@HPNHIDJI@?$AAj?$AAa?$AA?9?$AAJ?$AAP@ 000000014001a628     libucrt:mbctype.obj
 0002:00002638       ??_C@_1M@BIBDDEMK@?$AAz?$AAh?$AA?9?$AAC?$AAN@ 000000014001a638     libucrt:mbctype.obj
 0002:00002648       ??_C@_1M@JLOOOEGK@?$AAk?$AAo?$AA?9?$AAK?$AAR@ 000000014001a648     libucrt:mbctype.obj
 0002:00002658       ??_C@_1M@CLNBBOPM@?$AAz?$AAh?$AA?9?$AAT?$AAW@ 000000014001a658     libucrt:mbctype.obj
 0002:00002664       ??_C@_15PJPFLCCM@?$AAu?$AAk@ 000000014001a664     libucrt:get_qualified_locale.obj
 0002:00002710       ??_C@_1EA@JGEFHKEI@?$AAa?$AAp?$AAi?$AA?9?$AAm?$AAs?$AA?9?$AAw?$AAi?$AAn?$AA?9?$AAc?$AAo?$AAr?$AAe@ 000000014001a710     libucrt:winapi_thunks.obj
 0002:00002750       ??_C@_1DI@IJCEHOCB@?$AAa?$AAp?$AAi?$AA?9?$AAm?$AAs?$AA?9?$AAw?$AAi?$AAn?$AA?9?$AAc?$AAo?$AAr?$AAe@ 000000014001a750     libucrt:winapi_thunks.obj
 0002:00002790       ??_C@_1EI@MPIAOHOC@?$AAa?$AAp?$AAi?$AA?9?$AAm?$AAs?$AA?9?$AAw?$AAi?$AAn?$AA?9?$AAc?$AAo?$AAr?$AAe@ 000000014001a790     libucrt:winapi_thunks.obj
 0002:000027e0       ??_C@_1FK@FPHCKFIE@?$AAa?$AAp?$AAi?$AA?9?$AAm?$AAs?$AA?9?$AAw?$AAi?$AAn?$AA?9?$AAc?$AAo?$AAr?$AAe@ 000000014001a7e0     libucrt:winapi_thunks.obj
 0002:00002840       ??_C@_1EM@DILCGIIO@?$AAa?$AAp?$AAi?$AA?9?$AAm?$AAs?$AA?9?$AAw?$AAi?$AAn?$AA?9?$AAc?$AAo?$AAr?$AAe@ 000000014001a840     libucrt:winapi_thunks.obj
 0002:00002890       ??_C@_1DM@LNCGDDPN@?$AAa?$AAp?$AAi?$AA?9?$AAm?$AAs?$AA?9?$AAw?$AAi?$AAn?$AA?9?$AAc?$AAo?$AAr?$AAe@ 000000014001a890     libucrt:winapi_thunks.obj
 0002:000028d0       ??_C@_1DO@FPAPJEMD@?$AAa?$AAp?$AAi?$AA?9?$AAm?$AAs?$AA?9?$AAw?$AAi?$AAn?$AA?9?$AAc?$AAo?$AAr?$AAe@ 000000014001a8d0     libucrt:winapi_thunks.obj
 0002:00002910       ??_C@_1DK@NDHNAHIO@?$AAa?$AAp?$AAi?$AA?9?$AAm?$AAs?$AA?9?$AAw?$AAi?$AAn?$AA?9?$AAc?$AAo?$AAr?$AAe@ 000000014001a910     libucrt:winapi_thunks.obj
 0002:00002950       ??_C@_1DM@KGHDGBCM@?$AAa?$AAp?$AAi?$AA?9?$AAm?$AAs?$AA?9?$AAw?$AAi?$AAn?$AA?9?$AAc?$AAo?$AAr?$AAe@ 000000014001a950     libucrt:winapi_thunks.obj
 0002:00002990       ??_C@_1EO@IJIOEFOH@?$AAa?$AAp?$AAi?$AA?9?$AAm?$AAs?$AA?9?$AAw?$AAi?$AAn?$AA?9?$AAr?$AAt?$AAc?$AAo@ 000000014001a990     libucrt:winapi_thunks.obj
 0002:000029e0       ??_C@_1FG@HHGEKANL@?$AAa?$AAp?$AAi?$AA?9?$AAm?$AAs?$AA?9?$AAw?$AAi?$AAn?$AA?9?$AAs?$AAe?$AAc?$AAu@ 000000014001a9e0     libucrt:winapi_thunks.obj
 0002:00002a40       ??_C@_1EG@DBIOJECG@?$AAe?$AAx?$AAt?$AA?9?$AAm?$AAs?$AA?9?$AAw?$AAi?$AAn?$AA?9?$AAn?$AAt?$AAu?$AAs@ 000000014001aa40     libucrt:winapi_thunks.obj
 0002:00002a90       ??_C@_1EO@FIHMJCLF@?$AAe?$AAx?$AAt?$AA?9?$AAm?$AAs?$AA?9?$AAw?$AAi?$AAn?$AA?9?$AAn?$AAt?$AAu?$AAs@ 000000014001aa90     libucrt:winapi_thunks.obj
 0002:00002ae0       ??_C@_1BC@DNHGCMLG@?$AAa?$AAd?$AAv?$AAa?$AAp?$AAi?$AA3?$AA2@ 000000014001aae0     libucrt:winapi_thunks.obj
 0002:00002af8       ??_C@_1M@OAIMIKLP@?$AAn?$AAt?$AAd?$AAl?$AAl@ 000000014001aaf8     libucrt:winapi_thunks.obj
 0002:00002b10       ??_C@_1EG@DPGNFKGC@?$AAa?$AAp?$AAi?$AA?9?$AAm?$AAs?$AA?9?$AAw?$AAi?$AAn?$AA?9?$AAa?$AAp?$AAp?$AAm@ 000000014001ab10     libucrt:winapi_thunks.obj
 0002:00002b58       ??_C@_1O@BCCLBEOE@?$AAu?$AAs?$AAe?$AAr?$AA3?$AA2@ 000000014001ab58     libucrt:winapi_thunks.obj
 0002:00002b98       ??_C@_0O@KKBNKAPF@LCMapStringEx@ 000000014001ab98     libucrt:winapi_thunks.obj
 0002:00002bb0       ??_C@_0BB@HBDEELFH@LocaleNameToLCID@ 000000014001abb0     libucrt:winapi_thunks.obj
 0002:00002bc8       ??_C@_0CF@OJOFEIGO@AppPolicyGetProcessTerminationM@ 000000014001abc8     libucrt:winapi_thunks.obj
 0002:00002bf0       ?large_power_data@?1??multiply_by_power_of_ten@__crt_strtox@@YA_NAEAUbig_integer@2@I@Z@4QBIB 000000014001abf0     libucrt:cfout.obj
 0002:00003598       ?small_powers_of_ten@?1??multiply_by_power_of_ten@__crt_strtox@@YA_NAEAUbig_integer@2@I@Z@4QBIB 000000014001b598     libucrt:cfout.obj
 0002:000035bc       ??_C@_01GBGANLPD@0@        000000014001b5bc     libucrt:cfout.obj
 0002:000035c0       ??_C@_05DNEBIAHO@1?$CDINF@ 000000014001b5c0     libucrt:cfout.obj
 0002:000035c8       ??_C@_06IMKFLFPG@1?$CDQNAN@ 000000014001b5c8     libucrt:cfout.obj
 0002:000035d0       ??_C@_06PGGFOGJG@1?$CDSNAN@ 000000014001b5d0     libucrt:cfout.obj
 0002:000035d8       ??_C@_05PHHOCPM@1?$CDIND@  000000014001b5d8     libucrt:cfout.obj
 0002:00004420       ??_C@_15EMKDOKLE@?$AAa?$AAr@ 000000014001c420     libucrt:lcidtoname_downlevel.obj
 0002:00004428       ??_C@_15KNPADPLH@?$AAb?$AAg@ 000000014001c428     libucrt:lcidtoname_downlevel.obj
 0002:00004430       ??_C@_15EDMHLDMO@?$AAc?$AAa@ 000000014001c430     libucrt:lcidtoname_downlevel.obj
 0002:00004438       ??_C@_1O@BPEAJADD@?$AAz?$AAh?$AA?9?$AAC?$AAH?$AAS@ 000000014001c438     libucrt:lcidtoname_downlevel.obj
 0002:00004448       ??_C@_15LJNHCMNK@?$AAc?$AAs@ 000000014001c448     libucrt:lcidtoname_downlevel.obj
 0002:00004450       ??_C@_15FOMCIDHG@?$AAd?$AAa@ 000000014001c450     libucrt:lcidtoname_downlevel.obj
 0002:00004458       ??_C@_15NBKABECB@?$AAd?$AAe@ 000000014001c458     libucrt:lcidtoname_downlevel.obj
 0002:00004460       ??_C@_15GHPEIIAO@?$AAe?$AAl@ 000000014001c460     libucrt:lcidtoname_downlevel.obj
 0002:00004468       ??_C@_15MNPNEAIF@?$AAe?$AAn@ 000000014001c468     libucrt:lcidtoname_downlevel.obj
 0002:00004470       ??_C@_15GPIOMPMH@?$AAe?$AAs@ 000000014001c470     libucrt:lcidtoname_downlevel.obj
 0002:00004478       ??_C@_15NGLOAKJC@?$AAf?$AAi@ 000000014001c478     libucrt:lcidtoname_downlevel.obj
 0002:00004480       ??_C@_15FBKGNKAM@?$AAf?$AAr@ 000000014001c480     libucrt:lcidtoname_downlevel.obj
 0002:00004488       ??_C@_15KGGCNEFK@?$AAh?$AAe@ 000000014001c488     libucrt:lcidtoname_downlevel.obj
 0002:00004490       ??_C@_15PGHLIDMF@?$AAh?$AAu@ 000000014001c490     libucrt:lcidtoname_downlevel.obj
 0002:00004498       ??_C@_15BIEMAPLM@?$AAi?$AAs@ 000000014001c498     libucrt:lcidtoname_downlevel.obj
 0002:000044a0       ??_C@_15IFJLDHAF@?$AAi?$AAt@ 000000014001c4a0     libucrt:lcidtoname_downlevel.obj
 0002:000044a8       ??_C@_15GEMIOCAG@?$AAj?$AAa@ 000000014001c4a8     libucrt:lcidtoname_downlevel.obj
 0002:000044b0       ??_C@_15EPELEGJA@?$AAk?$AAo@ 000000014001c4b0     libucrt:lcidtoname_downlevel.obj
 0002:000044b8       ??_C@_15NDDHIMN@?$AAn?$AAl@ 000000014001c4b8     libucrt:lcidtoname_downlevel.obj
 0002:000044c0       ??_C@_15BPIGNHCD@?$AAn?$AAo@ 000000014001c4c0     libucrt:lcidtoname_downlevel.obj
 0002:000044c8       ??_C@_15DEOPBLCG@?$AAp?$AAl@ 000000014001c4c8     libucrt:lcidtoname_downlevel.obj
 0002:000044d0       ??_C@_15KBECGEFG@?$AAp?$AAt@ 000000014001c4d0     libucrt:lcidtoname_downlevel.obj
 0002:000044d8       ??_C@_15GLJCBFMD@?$AAr?$AAo@ 000000014001c4d8     libucrt:lcidtoname_downlevel.obj
 0002:000044e0       ??_C@_15FEDGKCDI@?$AAr?$AAu@ 000000014001c4e0     libucrt:lcidtoname_downlevel.obj
 0002:000044e8       ??_C@_15GLKMLLHM@?$AAh?$AAr@ 000000014001c4e8     libucrt:lcidtoname_downlevel.obj
 0002:000044f0       ??_C@_15CPKMFBDB@?$AAs?$AAk@ 000000014001c4f0     libucrt:lcidtoname_downlevel.obj
 0002:000044f8       ??_C@_15BAAIOGMK@?$AAs?$AAq@ 000000014001c4f8     libucrt:lcidtoname_downlevel.obj
 0002:00004500       ??_C@_15INNPNOHD@?$AAs?$AAv@ 000000014001c500     libucrt:lcidtoname_downlevel.obj
 0002:00004508       ??_C@_15CABMMOGH@?$AAt?$AAh@ 000000014001c508     libucrt:lcidtoname_downlevel.obj
 0002:00004510       ??_C@_15BPLIHJJM@?$AAt?$AAr@ 000000014001c510     libucrt:lcidtoname_downlevel.obj
 0002:00004518       ??_C@_15NEOEKKDJ@?$AAu?$AAr@ 000000014001c518     libucrt:lcidtoname_downlevel.obj
 0002:00004520       ??_C@_15NFICGAJK@?$AAi?$AAd@ 000000014001c520     libucrt:lcidtoname_downlevel.obj
 0002:00004528       ??_C@_15HPJPHDM@?$AAb?$AAe@ 000000014001c528     libucrt:lcidtoname_downlevel.obj
 0002:00004530       ??_C@_15LCHLGJII@?$AAs?$AAl@ 000000014001c530     libucrt:lcidtoname_downlevel.obj
 0002:00004538       ??_C@_15PCFJPHHO@?$AAe?$AAt@ 000000014001c538     libucrt:lcidtoname_downlevel.obj
 0002:00004540       ??_C@_15HPFPGODN@?$AAl?$AAv@ 000000014001c540     libucrt:lcidtoname_downlevel.obj
 0002:00004548       ??_C@_15NFFGKGLG@?$AAl?$AAt@ 000000014001c548     libucrt:lcidtoname_downlevel.obj
 0002:00004550       ??_C@_15BDAKCCHN@?$AAf?$AAa@ 000000014001c550     libucrt:lcidtoname_downlevel.obj
 0002:00004558       ??_C@_15NFGIAIAJ@?$AAv?$AAi@ 000000014001c558     libucrt:lcidtoname_downlevel.obj
 0002:00004560       ??_C@_15LMKNDMHN@?$AAh?$AAy@ 000000014001c560     libucrt:lcidtoname_downlevel.obj
 0002:00004568       ??_C@_15IJBHMCFL@?$AAa?$AAz@ 000000014001c568     libucrt:lcidtoname_downlevel.obj
 0002:00004570       ??_C@_15EKOFJABL@?$AAe?$AAu@ 000000014001c570     libucrt:lcidtoname_downlevel.obj
 0002:00004578       ??_C@_15BGHADCNK@?$AAm?$AAk@ 000000014001c578     libucrt:lcidtoname_downlevel.obj
 0002:00004580       ??_C@_15JDNICKHM@?$AAa?$AAf@ 000000014001c580     libucrt:lcidtoname_downlevel.obj
 0002:00004588       ??_C@_15KPJEDBKD@?$AAk?$AAa@ 000000014001c588     libucrt:lcidtoname_downlevel.obj
 0002:00004590       ??_C@_15PDNFFFEO@?$AAf?$AAo@ 000000014001c590     libucrt:lcidtoname_downlevel.obj
 0002:00004598       ??_C@_15OMLEGLOC@?$AAh?$AAi@ 000000014001c598     libucrt:lcidtoname_downlevel.obj
 0002:000045a0       ??_C@_15IDNNENKK@?$AAm?$AAs@ 000000014001c5a0     libucrt:lcidtoname_downlevel.obj
 0002:000045a8       ??_C@_15MACJNBMH@?$AAk?$AAk@ 000000014001c5a8     libucrt:lcidtoname_downlevel.obj
 0002:000045b0       ??_C@_15DKDJEOND@?$AAk?$AAy@ 000000014001c5b0     libucrt:lcidtoname_downlevel.obj
 0002:000045b8       ??_C@_15DFGDLJBG@?$AAs?$AAw@ 000000014001c5b8     libucrt:lcidtoname_downlevel.obj
 0002:000045c0       ??_C@_15BBFAICNG@?$AAu?$AAz@ 000000014001c5c0     libucrt:lcidtoname_downlevel.obj
 0002:000045c8       ??_C@_15DKNDCGEA@?$AAt?$AAt@ 000000014001c5c8     libucrt:lcidtoname_downlevel.obj
 0002:000045d0       ??_C@_15MGIFMDPL@?$AAp?$AAa@ 000000014001c5d0     libucrt:lcidtoname_downlevel.obj
 0002:000045d8       ??_C@_15HCNDBBA@?$AAg?$AAu@ 000000014001c5d8     libucrt:lcidtoname_downlevel.obj
 0002:000045e0       ??_C@_15FNBEIBON@?$AAt?$AAa@ 000000014001c5e0     libucrt:lcidtoname_downlevel.obj
 0002:000045e8       ??_C@_15NCHGBGLK@?$AAt?$AAe@ 000000014001c5e8     libucrt:lcidtoname_downlevel.obj
 0002:000045f0       ??_C@_15PHPHCBPF@?$AAk?$AAn@ 000000014001c5f0     libucrt:lcidtoname_downlevel.obj
 0002:000045f8       ??_C@_15DLGBCKMP@?$AAm?$AAr@ 000000014001c5f8     libucrt:lcidtoname_downlevel.obj
 0002:00004600       ??_C@_15EABBLBFF@?$AAs?$AAa@ 000000014001c600     libucrt:lcidtoname_downlevel.obj
 0002:00004608       ??_C@_15CBKOMCOI@?$AAm?$AAn@ 000000014001c608     libucrt:lcidtoname_downlevel.obj
 0002:00004610       ??_C@_15CKDMCJAF@?$AAg?$AAl@ 000000014001c610     libucrt:lcidtoname_downlevel.obj
 0002:00004618       ??_C@_17CNJFBPG@?$AAk?$AAo?$AAk@ 000000014001c618     libucrt:lcidtoname_downlevel.obj
 0002:00004620       ??_C@_17FFBJICPL@?$AAs?$AAy?$AAr@ 000000014001c620     libucrt:lcidtoname_downlevel.obj
 0002:00004628       ??_C@_17KPNDCPAF@?$AAd?$AAi?$AAv@ 000000014001c628     libucrt:lcidtoname_downlevel.obj
 0002:00004630       ??_C@_1M@OKAHONE@?$AAa?$AAr?$AA?9?$AAS?$AAA@ 000000014001c630     libucrt:lcidtoname_downlevel.obj
 0002:00004640       ??_C@_1M@FFFIGIGK@?$AAb?$AAg?$AA?9?$AAB?$AAG@ 000000014001c640     libucrt:lcidtoname_downlevel.obj
 0002:00004650       ??_C@_1M@BJNKEDC@?$AAc?$AAa?$AA?9?$AAE?$AAS@ 000000014001c650     libucrt:lcidtoname_downlevel.obj
 0002:00004660       ??_C@_1M@IJJHFJHA@?$AAc?$AAs?$AA?9?$AAC?$AAZ@ 000000014001c660     libucrt:lcidtoname_downlevel.obj
 0002:00004670       ??_C@_1M@CLPEOBGI@?$AAd?$AAa?$AA?9?$AAD?$AAK@ 000000014001c670     libucrt:lcidtoname_downlevel.obj
 0002:00004680       ??_C@_1M@MCMADGCB@?$AAd?$AAe?$AA?9?$AAD?$AAE@ 000000014001c680     libucrt:lcidtoname_downlevel.obj
 0002:00004690       ??_C@_1M@OOCKEMAM@?$AAe?$AAl?$AA?9?$AAG?$AAR@ 000000014001c690     libucrt:lcidtoname_downlevel.obj
 0002:000046a0       ??_C@_1M@DDNJFGID@?$AAf?$AAi?$AA?9?$AAF?$AAI@ 000000014001c6a0     libucrt:lcidtoname_downlevel.obj
 0002:000046b0       ??_C@_1M@GLIPPMAC@?$AAf?$AAr?$AA?9?$AAF?$AAR@ 000000014001c6b0     libucrt:lcidtoname_downlevel.obj
 0002:000046c0       ??_C@_1M@GFMCHPE@?$AAh?$AAe?$AA?9?$AAI?$AAL@ 000000014001c6c0     libucrt:lcidtoname_downlevel.obj
 0002:000046d0       ??_C@_1M@MHLPGNKM@?$AAh?$AAu?$AA?9?$AAH?$AAU@ 000000014001c6d0     libucrt:lcidtoname_downlevel.obj
 0002:000046e0       ??_C@_1M@LPDDNNPN@?$AAi?$AAs?$AA?9?$AAI?$AAS@ 000000014001c6e0     libucrt:lcidtoname_downlevel.obj
 0002:000046f0       ??_C@_1M@MADIPODN@?$AAi?$AAt?$AA?9?$AAI?$AAT@ 000000014001c6f0     libucrt:lcidtoname_downlevel.obj
 0002:00004700       ??_C@_1M@IHBJJGG@?$AAn?$AAl?$AA?9?$AAN?$AAL@ 000000014001c700     libucrt:lcidtoname_downlevel.obj
 0002:00004710       ??_C@_1M@EANAGDL@?$AAn?$AAb?$AA?9?$AAN?$AAO@ 000000014001c710     libucrt:lcidtoname_downlevel.obj
 0002:00004720       ??_C@_1M@NEIEMEGP@?$AAp?$AAl?$AA?9?$AAP?$AAL@ 000000014001c720     libucrt:lcidtoname_downlevel.obj
 0002:00004730       ??_C@_1M@BOCFIGEP@?$AAp?$AAt?$AA?9?$AAB?$AAR@ 000000014001c730     libucrt:lcidtoname_downlevel.obj
 0002:00004740       ??_C@_1M@IMPFOPBG@?$AAr?$AAo?$AA?9?$AAR?$AAO@ 000000014001c740     libucrt:lcidtoname_downlevel.obj
 0002:00004750       ??_C@_1M@IDNNEJMM@?$AAr?$AAu?$AA?9?$AAR?$AAU@ 000000014001c750     libucrt:lcidtoname_downlevel.obj
 0002:00004760       ??_C@_1M@LILEEOGM@?$AAh?$AAr?$AA?9?$AAH?$AAR@ 000000014001c760     libucrt:lcidtoname_downlevel.obj
 0002:00004770       ??_C@_1M@FKIFEHPB@?$AAs?$AAk?$AA?9?$AAS?$AAK@ 000000014001c770     libucrt:lcidtoname_downlevel.obj
 0002:00004780       ??_C@_1M@LJMAMNPJ@?$AAs?$AAq?$AA?9?$AAA?$AAL@ 000000014001c780     libucrt:lcidtoname_downlevel.obj
 0002:00004790       ??_C@_1M@GIAKDKJK@?$AAs?$AAv?$AA?9?$AAS?$AAE@ 000000014001c790     libucrt:lcidtoname_downlevel.obj
 0002:000047a0       ??_C@_1M@MKJKIKCL@?$AAt?$AAh?$AA?9?$AAT?$AAH@ 000000014001c7a0     libucrt:lcidtoname_downlevel.obj
 0002:000047b0       ??_C@_1M@MFLCCMPB@?$AAt?$AAr?$AA?9?$AAT?$AAR@ 000000014001c7b0     libucrt:lcidtoname_downlevel.obj
 0002:000047c0       ??_C@_1M@OIJHDKJN@?$AAu?$AAr?$AA?9?$AAP?$AAK@ 000000014001c7c0     libucrt:lcidtoname_downlevel.obj
 0002:000047d0       ??_C@_1M@LHIPCIEK@?$AAi?$AAd?$AA?9?$AAI?$AAD@ 000000014001c7d0     libucrt:lcidtoname_downlevel.obj
 0002:000047e0       ??_C@_1M@MFMOBGI@?$AAu?$AAk?$AA?9?$AAU?$AAA@ 000000014001c7e0     libucrt:lcidtoname_downlevel.obj
 0002:000047f0       ??_C@_1M@OBGLJIPL@?$AAb?$AAe?$AA?9?$AAB?$AAY@ 000000014001c7f0     libucrt:lcidtoname_downlevel.obj
 0002:00004800       ??_C@_1M@BCFAJEAD@?$AAs?$AAl?$AA?9?$AAS?$AAI@ 000000014001c800     libucrt:lcidtoname_downlevel.obj
 0002:00004810       ??_C@_1M@FKFFEDDN@?$AAe?$AAt?$AA?9?$AAE?$AAE@ 000000014001c810     libucrt:lcidtoname_downlevel.obj
 0002:00004820       ??_C@_1M@KGKKAACI@?$AAl?$AAv?$AA?9?$AAL?$AAV@ 000000014001c820     libucrt:lcidtoname_downlevel.obj
 0002:00004830       ??_C@_1M@IFGBIJO@?$AAl?$AAt?$AA?9?$AAL?$AAT@ 000000014001c830     libucrt:lcidtoname_downlevel.obj
 0002:00004840       ??_C@_1M@FGEAHEDM@?$AAf?$AAa?$AA?9?$AAI?$AAR@ 000000014001c840     libucrt:lcidtoname_downlevel.obj
 0002:00004850       ??_C@_1M@KBMAIBFN@?$AAv?$AAi?$AA?9?$AAV?$AAN@ 000000014001c850     libucrt:lcidtoname_downlevel.obj
 0002:00004860       ??_C@_1M@GPCBKDJK@?$AAh?$AAy?$AA?9?$AAA?$AAM@ 000000014001c860     libucrt:lcidtoname_downlevel.obj
 0002:00004870       ??_C@_1BG@BECMDDJB@?$AAa?$AAz?$AA?9?$AAA?$AAZ?$AA?9?$AAL?$AAa?$AAt?$AAn@ 000000014001c870     libucrt:lcidtoname_downlevel.obj
 0002:00004888       ??_C@_1M@MAOFCAEA@?$AAe?$AAu?$AA?9?$AAE?$AAS@ 000000014001c888     libucrt:lcidtoname_downlevel.obj
 0002:00004898       ??_C@_1M@IGHABKPI@?$AAm?$AAk?$AA?9?$AAM?$AAK@ 000000014001c898     libucrt:lcidtoname_downlevel.obj
 0002:000048a8       ??_C@_1M@IAIGNEJG@?$AAt?$AAn?$AA?9?$AAZ?$AAA@ 000000014001c8a8     libucrt:lcidtoname_downlevel.obj
 0002:000048b8       ??_C@_1M@IIJCOJFA@?$AAx?$AAh?$AA?9?$AAZ?$AAA@ 000000014001c8b8     libucrt:lcidtoname_downlevel.obj
 0002:000048c8       ??_C@_1M@LGPJHNJH@?$AAz?$AAu?$AA?9?$AAZ?$AAA@ 000000014001c8c8     libucrt:lcidtoname_downlevel.obj
 0002:000048d8       ??_C@_1M@HOKAOIO@?$AAa?$AAf?$AA?9?$AAZ?$AAA@ 000000014001c8d8     libucrt:lcidtoname_downlevel.obj
 0002:000048e8       ??_C@_1M@DPCLHLIE@?$AAk?$AAa?$AA?9?$AAG?$AAE@ 000000014001c8e8     libucrt:lcidtoname_downlevel.obj
 0002:000048f8       ??_C@_1M@BLKMHJBI@?$AAf?$AAo?$AA?9?$AAF?$AAO@ 000000014001c8f8     libucrt:lcidtoname_downlevel.obj
 0002:00004908       ??_C@_1M@LGGJAPPB@?$AAh?$AAi?$AA?9?$AAI?$AAN@ 000000014001c908     libucrt:lcidtoname_downlevel.obj
 0002:00004918       ??_C@_1M@FIKPIHFE@?$AAm?$AAt?$AA?9?$AAM?$AAT@ 000000014001c918     libucrt:lcidtoname_downlevel.obj
 0002:00004928       ??_C@_1M@HEGGPBFA@?$AAs?$AAe?$AA?9?$AAN?$AAO@ 000000014001c928     libucrt:lcidtoname_downlevel.obj
 0002:00004938       ??_C@_1M@EIBJEEPA@?$AAm?$AAs?$AA?9?$AAM?$AAY@ 000000014001c938     libucrt:lcidtoname_downlevel.obj
 0002:00004948       ??_C@_1M@FHLBGMPP@?$AAk?$AAk?$AA?9?$AAK?$AAZ@ 000000014001c948     libucrt:lcidtoname_downlevel.obj
 0002:00004958       ??_C@_1M@NGJJLCGI@?$AAk?$AAy?$AA?9?$AAK?$AAG@ 000000014001c958     libucrt:lcidtoname_downlevel.obj
 0002:00004968       ??_C@_1M@GIENNBFC@?$AAs?$AAw?$AA?9?$AAK?$AAE@ 000000014001c968     libucrt:lcidtoname_downlevel.obj
 0002:00004978       ??_C@_1BG@NDGMJIMJ@?$AAu?$AAz?$AA?9?$AAU?$AAZ?$AA?9?$AAL?$AAa?$AAt?$AAn@ 000000014001c978     libucrt:lcidtoname_downlevel.obj
 0002:00004990       ??_C@_1M@IDCCIHBC@?$AAt?$AAt?$AA?9?$AAR?$AAU@ 000000014001c990     libucrt:lcidtoname_downlevel.obj
 0002:000049a0       ??_C@_1M@LOICPMOJ@?$AAb?$AAn?$AA?9?$AAI?$AAN@ 000000014001c9a0     libucrt:lcidtoname_downlevel.obj
 0002:000049b0       ??_C@_1M@KPKKNEAH@?$AAp?$AAa?$AA?9?$AAI?$AAN@ 000000014001c9b0     libucrt:lcidtoname_downlevel.obj
 0002:000049c0       ??_C@_1M@PJGPPBOG@?$AAg?$AAu?$AA?9?$AAI?$AAN@ 000000014001c9c0     libucrt:lcidtoname_downlevel.obj
 0002:000049d0       ??_C@_1M@KMKMOPHI@?$AAt?$AAa?$AA?9?$AAI?$AAN@ 000000014001c9d0     libucrt:lcidtoname_downlevel.obj
 0002:000049e0       ??_C@_1M@KFEHEPAC@?$AAt?$AAe?$AA?9?$AAI?$AAN@ 000000014001c9e0     libucrt:lcidtoname_downlevel.obj
 0002:000049f0       ??_C@_1M@CDCLMGHI@?$AAk?$AAn?$AA?9?$AAI?$AAN@ 000000014001c9f0     libucrt:lcidtoname_downlevel.obj
 0002:00004a00       ??_C@_1M@MIODLDKF@?$AAm?$AAl?$AA?9?$AAI?$AAN@ 000000014001ca00     libucrt:lcidtoname_downlevel.obj
 0002:00004a10       ??_C@_1M@PBIEACPO@?$AAm?$AAr?$AA?9?$AAI?$AAN@ 000000014001ca10     libucrt:lcidtoname_downlevel.obj
 0002:00004a20       ??_C@_1M@NIDEAGPH@?$AAs?$AAa?$AA?9?$AAI?$AAN@ 000000014001ca20     libucrt:lcidtoname_downlevel.obj
 0002:00004a30       ??_C@_1M@FHIHCBIO@?$AAm?$AAn?$AA?9?$AAM?$AAN@ 000000014001ca30     libucrt:lcidtoname_downlevel.obj
 0002:00004a40       ??_C@_1M@JAIJPENP@?$AAc?$AAy?$AA?9?$AAG?$AAB@ 000000014001ca40     libucrt:lcidtoname_downlevel.obj
 0002:00004a50       ??_C@_1M@PHGFBEPN@?$AAg?$AAl?$AA?9?$AAE?$AAS@ 000000014001ca50     libucrt:lcidtoname_downlevel.obj
 0002:00004a60       ??_C@_1O@KPIPDNCP@?$AAk?$AAo?$AAk?$AA?9?$AAI?$AAN@ 000000014001ca60     libucrt:lcidtoname_downlevel.obj
 0002:00004a70       ??_C@_1O@KNHJLDJA@?$AAs?$AAy?$AAr?$AA?9?$AAS?$AAY@ 000000014001ca70     libucrt:lcidtoname_downlevel.obj
 0002:00004a80       ??_C@_1O@MKEKBLAH@?$AAd?$AAi?$AAv?$AA?9?$AAM?$AAV@ 000000014001ca80     libucrt:lcidtoname_downlevel.obj
 0002:00004a90       ??_C@_1O@OHDCKDDF@?$AAq?$AAu?$AAz?$AA?9?$AAB?$AAO@ 000000014001ca90     libucrt:lcidtoname_downlevel.obj
 0002:00004aa0       ??_C@_1M@LEPJNLFD@?$AAn?$AAs?$AA?9?$AAZ?$AAA@ 000000014001caa0     libucrt:lcidtoname_downlevel.obj
 0002:00004ab0       ??_C@_1M@OMLEIIJB@?$AAm?$AAi?$AA?9?$AAN?$AAZ@ 000000014001cab0     libucrt:lcidtoname_downlevel.obj
 0002:00004ac0       ??_C@_1M@PMPEAILG@?$AAa?$AAr?$AA?9?$AAI?$AAQ@ 000000014001cac0     libucrt:lcidtoname_downlevel.obj
 0002:00004ad0       ??_C@_1M@CNKPNOEE@?$AAd?$AAe?$AA?9?$AAC?$AAH@ 000000014001cad0     libucrt:lcidtoname_downlevel.obj
 0002:00004ae0       ??_C@_1M@LKMGMLKO@?$AAe?$AAn?$AA?9?$AAG?$AAB@ 000000014001cae0     libucrt:lcidtoname_downlevel.obj
 0002:00004af0       ??_C@_1M@PGKJFFGL@?$AAe?$AAs?$AA?9?$AAM?$AAX@ 000000014001caf0     libucrt:lcidtoname_downlevel.obj
 0002:00004b00       ??_C@_1M@DNNANBDC@?$AAf?$AAr?$AA?9?$AAB?$AAE@ 000000014001cb00     libucrt:lcidtoname_downlevel.obj
 0002:00004b10       ??_C@_1M@HLGMDFHM@?$AAi?$AAt?$AA?9?$AAC?$AAH@ 000000014001cb10     libucrt:lcidtoname_downlevel.obj
 0002:00004b20       ??_C@_1M@CLLBGJH@?$AAn?$AAl?$AA?9?$AAB?$AAE@ 000000014001cb20     libucrt:lcidtoname_downlevel.obj
 0002:00004b30       ??_C@_1M@BODBOGLF@?$AAn?$AAn?$AA?9?$AAN?$AAO@ 000000014001cb30     libucrt:lcidtoname_downlevel.obj
 0002:00004b40       ??_C@_1M@HFFAHKAD@?$AAp?$AAt?$AA?9?$AAP?$AAT@ 000000014001cb40     libucrt:lcidtoname_downlevel.obj
 0002:00004b50       ??_C@_1BG@LNOAKHIE@?$AAs?$AAr?$AA?9?$AAS?$AAP?$AA?9?$AAL?$AAa?$AAt?$AAn@ 000000014001cb50     libucrt:lcidtoname_downlevel.obj
 0002:00004b68       ??_C@_1M@HBMHBGAK@?$AAs?$AAv?$AA?9?$AAF?$AAI@ 000000014001cb68     libucrt:lcidtoname_downlevel.obj
 0002:00004b78       ??_C@_1BG@DGCJGJBE@?$AAa?$AAz?$AA?9?$AAA?$AAZ?$AA?9?$AAC?$AAy?$AAr?$AAl@ 000000014001cb78     libucrt:lcidtoname_downlevel.obj
 0002:00004b90       ??_C@_1M@KEJDAAHB@?$AAs?$AAe?$AA?9?$AAS?$AAE@ 000000014001cb90     libucrt:lcidtoname_downlevel.obj
 0002:00004ba0       ??_C@_1M@HEIBJJAD@?$AAm?$AAs?$AA?9?$AAB?$AAN@ 000000014001cba0     libucrt:lcidtoname_downlevel.obj
 0002:00004bb0       ??_C@_1BG@PBGJMCEM@?$AAu?$AAz?$AA?9?$AAU?$AAZ?$AA?9?$AAC?$AAy?$AAr?$AAl@ 000000014001cbb0     libucrt:lcidtoname_downlevel.obj
 0002:00004bc8       ??_C@_1O@LAOBCMDF@?$AAq?$AAu?$AAz?$AA?9?$AAE?$AAC@ 000000014001cbc8     libucrt:lcidtoname_downlevel.obj
 0002:00004bd8       ??_C@_1M@POEEMAIO@?$AAa?$AAr?$AA?9?$AAE?$AAG@ 000000014001cbd8     libucrt:lcidtoname_downlevel.obj
 0002:00004be8       ??_C@_1M@EFAKDEDL@?$AAz?$AAh?$AA?9?$AAH?$AAK@ 000000014001cbe8     libucrt:lcidtoname_downlevel.obj
 0002:00004bf8       ??_C@_1M@HKKIJHGI@?$AAd?$AAe?$AA?9?$AAA?$AAT@ 000000014001cbf8     libucrt:lcidtoname_downlevel.obj
 0002:00004c08       ??_C@_1M@KBFBEHJF@?$AAe?$AAn?$AA?9?$AAA?$AAU@ 000000014001cc08     libucrt:lcidtoname_downlevel.obj
 0002:00004c18       ??_C@_1M@MNPLFAAH@?$AAe?$AAs?$AA?9?$AAE?$AAS@ 000000014001cc18     libucrt:lcidtoname_downlevel.obj
 0002:00004c28       ??_C@_1M@HJOOJFMA@?$AAf?$AAr?$AA?9?$AAC?$AAA@ 000000014001cc28     libucrt:lcidtoname_downlevel.obj
 0002:00004c38       ??_C@_1BG@JPOFPNAB@?$AAs?$AAr?$AA?9?$AAS?$AAP?$AA?9?$AAC?$AAy?$AAr?$AAl@ 000000014001cc38     libucrt:lcidtoname_downlevel.obj
 0002:00004c50       ??_C@_1M@LNFOCMOB@?$AAs?$AAe?$AA?9?$AAF?$AAI@ 000000014001cc50     libucrt:lcidtoname_downlevel.obj
 0002:00004c60       ??_C@_1O@MGJBOAMB@?$AAq?$AAu?$AAz?$AA?9?$AAP?$AAE@ 000000014001cc60     libucrt:lcidtoname_downlevel.obj
 0002:00004c70       ??_C@_1M@GJINLBOK@?$AAa?$AAr?$AA?9?$AAL?$AAY@ 000000014001cc70     libucrt:lcidtoname_downlevel.obj
 0002:00004c80       ??_C@_1M@GGMNHJNL@?$AAz?$AAh?$AA?9?$AAS?$AAG@ 000000014001cc80     libucrt:lcidtoname_downlevel.obj
 0002:00004c90       ??_C@_1M@HOIKODND@?$AAd?$AAe?$AA?9?$AAL?$AAU@ 000000014001cc90     libucrt:lcidtoname_downlevel.obj
 0002:00004ca0       ??_C@_1M@DDOCCGFG@?$AAe?$AAn?$AA?9?$AAC?$AAA@ 000000014001cca0     libucrt:lcidtoname_downlevel.obj
 0002:00004cb0       ??_C@_1M@BNOEMJLF@?$AAe?$AAs?$AA?9?$AAG?$AAT@ 000000014001ccb0     libucrt:lcidtoname_downlevel.obj
 0002:00004cc0       ??_C@_1M@EOGNKEK@?$AAf?$AAr?$AA?9?$AAC?$AAH@ 000000014001ccc0     libucrt:lcidtoname_downlevel.obj
 0002:00004cd0       ??_C@_1M@FLIDJFHL@?$AAh?$AAr?$AA?9?$AAB?$AAA@ 000000014001ccd0     libucrt:lcidtoname_downlevel.obj
 0002:00004ce0       ??_C@_1O@FMCELNAJ@?$AAs?$AAm?$AAj?$AA?9?$AAN?$AAO@ 000000014001cce0     libucrt:lcidtoname_downlevel.obj
 0002:00004cf0       ??_C@_1M@JHGLJMGJ@?$AAa?$AAr?$AA?9?$AAD?$AAZ@ 000000014001ccf0     libucrt:lcidtoname_downlevel.obj
 0002:00004d00       ??_C@_1M@JKKFDCNP@?$AAz?$AAh?$AA?9?$AAM?$AAO@ 000000014001cd00     libucrt:lcidtoname_downlevel.obj
 0002:00004d10       ??_C@_1M@GEEFALPE@?$AAd?$AAe?$AA?9?$AAL?$AAI@ 000000014001cd10     libucrt:lcidtoname_downlevel.obj
 0002:00004d20       ??_C@_1M@IGEOFBG@?$AAe?$AAn?$AA?9?$AAN?$AAZ@ 000000014001cd20     libucrt:lcidtoname_downlevel.obj
 0002:00004d30       ??_C@_1M@KDBONEHP@?$AAe?$AAs?$AA?9?$AAC?$AAR@ 000000014001cd30     libucrt:lcidtoname_downlevel.obj
 0002:00004d40       ??_C@_1M@FHMDOHNN@?$AAf?$AAr?$AA?9?$AAL?$AAU@ 000000014001cd40     libucrt:lcidtoname_downlevel.obj
 0002:00004d50       ??_C@_1BG@NFKKMAFG@?$AAb?$AAs?$AA?9?$AAB?$AAA?$AA?9?$AAL?$AAa?$AAt?$AAn@ 000000014001cd50     libucrt:lcidtoname_downlevel.obj
 0002:00004d68       ??_C@_1O@IMNBEMCI@?$AAs?$AAm?$AAj?$AA?9?$AAS?$AAE@ 000000014001cd68     libucrt:lcidtoname_downlevel.obj
 0002:00004d78       ??_C@_1M@DHHMBNDP@?$AAa?$AAr?$AA?9?$AAM?$AAA@ 000000014001cd78     libucrt:lcidtoname_downlevel.obj
 0002:00004d88       ??_C@_1M@BNBLJCGH@?$AAe?$AAn?$AA?9?$AAI?$AAE@ 000000014001cd88     libucrt:lcidtoname_downlevel.obj
 0002:00004d98       ??_C@_1M@GEPAFMDL@?$AAe?$AAs?$AA?9?$AAP?$AAA@ 000000014001cd98     libucrt:lcidtoname_downlevel.obj
 0002:00004da8       ??_C@_1M@OJONDMDL@?$AAf?$AAr?$AA?9?$AAM?$AAC@ 000000014001cda8     libucrt:lcidtoname_downlevel.obj
 0002:00004db8       ??_C@_1BG@OBCNFJB@?$AAs?$AAr?$AA?9?$AAB?$AAA?$AA?9?$AAL?$AAa?$AAt?$AAn@ 000000014001cdb8     libucrt:lcidtoname_downlevel.obj
 0002:00004dd0       ??_C@_1O@KEMEEGPO@?$AAs?$AAm?$AAa?$AA?9?$AAN?$AAO@ 000000014001cdd0     libucrt:lcidtoname_downlevel.obj
 0002:00004de0       ??_C@_1M@ELMGFODK@?$AAa?$AAr?$AA?9?$AAT?$AAN@ 000000014001cde0     libucrt:lcidtoname_downlevel.obj
 0002:00004df0       ??_C@_1M@BHDLHFAF@?$AAe?$AAn?$AA?9?$AAZ?$AAA@ 000000014001cdf0     libucrt:lcidtoname_downlevel.obj
 0002:00004e00       ??_C@_1M@BMGIGLIF@?$AAe?$AAs?$AA?9?$AAD?$AAO@ 000000014001ce00     libucrt:lcidtoname_downlevel.obj
 0002:00004e10       ??_C@_1BG@CMBHIPBE@?$AAs?$AAr?$AA?9?$AAB?$AAA?$AA?9?$AAC?$AAy?$AAr?$AAl@ 000000014001ce10     libucrt:lcidtoname_downlevel.obj
 0002:00004e28       ??_C@_1O@HEDBLHNP@?$AAs?$AAm?$AAa?$AA?9?$AAS?$AAE@ 000000014001ce28     libucrt:lcidtoname_downlevel.obj
 0002:00004e38       ??_C@_1M@DAGCADIM@?$AAa?$AAr?$AA?9?$AAO?$AAM@ 000000014001ce38     libucrt:lcidtoname_downlevel.obj
 0002:00004e48       ??_C@_1M@FODLMICG@?$AAe?$AAn?$AA?9?$AAJ?$AAM@ 000000014001ce48     libucrt:lcidtoname_downlevel.obj
 0002:00004e58       ??_C@_1M@DNMLCIHB@?$AAe?$AAs?$AA?9?$AAV?$AAE@ 000000014001ce58     libucrt:lcidtoname_downlevel.obj
 0002:00004e68       ??_C@_1O@EOKHMKJK@?$AAs?$AAm?$AAs?$AA?9?$AAF?$AAI@ 000000014001ce68     libucrt:lcidtoname_downlevel.obj
 0002:00004e78       ??_C@_1M@CAFJMKOF@?$AAa?$AAr?$AA?9?$AAY?$AAE@ 000000014001ce78     libucrt:lcidtoname_downlevel.obj
 0002:00004e88       ??_C@_1M@CBFHIJLI@?$AAe?$AAn?$AA?9?$AAC?$AAB@ 000000014001ce88     libucrt:lcidtoname_downlevel.obj
 0002:00004e98       ??_C@_1M@BGNFLDN@?$AAe?$AAs?$AA?9?$AAC?$AAO@ 000000014001ce98     libucrt:lcidtoname_downlevel.obj
 0002:00004ea8       ??_C@_1O@JMPHMAMC@?$AAs?$AAm?$AAn?$AA?9?$AAF?$AAI@ 000000014001cea8     libucrt:lcidtoname_downlevel.obj
 0002:00004eb8       ??_C@_1M@JLANABKE@?$AAa?$AAr?$AA?9?$AAS?$AAY@ 000000014001ceb8     libucrt:lcidtoname_downlevel.obj
 0002:00004ec8       ??_C@_1M@HPKGCFGN@?$AAe?$AAn?$AA?9?$AAB?$AAZ@ 000000014001cec8     libucrt:lcidtoname_downlevel.obj
 0002:00004ed8       ??_C@_1M@OLJCMLGM@?$AAe?$AAs?$AA?9?$AAP?$AAE@ 000000014001ced8     libucrt:lcidtoname_downlevel.obj
 0002:00004ee8       ??_C@_1M@MKKGFKLE@?$AAa?$AAr?$AA?9?$AAJ?$AAO@ 000000014001cee8     libucrt:lcidtoname_downlevel.obj
 0002:00004ef8       ??_C@_1M@EKPGLDNI@?$AAe?$AAn?$AA?9?$AAT?$AAT@ 000000014001cef8     libucrt:lcidtoname_downlevel.obj
 0002:00004f08       ??_C@_1M@OONGHFHE@?$AAe?$AAs?$AA?9?$AAA?$AAR@ 000000014001cf08     libucrt:lcidtoname_downlevel.obj
 0002:00004f18       ??_C@_1M@OOJFGBHE@?$AAa?$AAr?$AA?9?$AAL?$AAB@ 000000014001cf18     libucrt:lcidtoname_downlevel.obj
 0002:00004f28       ??_C@_1M@GCEJHNEG@?$AAe?$AAn?$AA?9?$AAZ?$AAW@ 000000014001cf28     libucrt:lcidtoname_downlevel.obj
 0002:00004f38       ??_C@_1M@JNOCAHJI@?$AAe?$AAs?$AA?9?$AAE?$AAC@ 000000014001cf38     libucrt:lcidtoname_downlevel.obj
 0002:00004f48       ??_C@_1M@JEFHPGGB@?$AAa?$AAr?$AA?9?$AAK?$AAW@ 000000014001cf48     libucrt:lcidtoname_downlevel.obj
 0002:00004f58       ??_C@_1M@MLKIBJOJ@?$AAe?$AAn?$AA?9?$AAP?$AAH@ 000000014001cf58     libucrt:lcidtoname_downlevel.obj
 0002:00004f68       ??_C@_1M@BDNIPEND@?$AAe?$AAs?$AA?9?$AAC?$AAL@ 000000014001cf68     libucrt:lcidtoname_downlevel.obj
 0002:00004f78       ??_C@_1M@MPNMEKBD@?$AAa?$AAr?$AA?9?$AAA?$AAE@ 000000014001cf78     libucrt:lcidtoname_downlevel.obj
 0002:00004f88       ??_C@_1M@KBJALCPI@?$AAe?$AAs?$AA?9?$AAU?$AAY@ 000000014001cf88     libucrt:lcidtoname_downlevel.obj
 0002:00004f98       ??_C@_1M@LLCCOAGA@?$AAa?$AAr?$AA?9?$AAB?$AAH@ 000000014001cf98     libucrt:lcidtoname_downlevel.obj
 0002:00004fa8       ??_C@_1M@PBFNCDEL@?$AAe?$AAs?$AA?9?$AAP?$AAY@ 000000014001cfa8     libucrt:lcidtoname_downlevel.obj
 0002:00004fb8       ??_C@_1M@EDGINPNP@?$AAa?$AAr?$AA?9?$AAQ?$AAA@ 000000014001cfb8     libucrt:lcidtoname_downlevel.obj
 0002:00004fc8       ??_C@_1M@MKDBIIJI@?$AAe?$AAs?$AA?9?$AAB?$AAO@ 000000014001cfc8     libucrt:lcidtoname_downlevel.obj
 0002:00004fd8       ??_C@_1M@CPKKEBLD@?$AAe?$AAs?$AA?9?$AAS?$AAV@ 000000014001cfd8     libucrt:lcidtoname_downlevel.obj
 0002:00004fe8       ??_C@_1M@NDBGMMJL@?$AAe?$AAs?$AA?9?$AAH?$AAN@ 000000014001cfe8     libucrt:lcidtoname_downlevel.obj
 0002:00004ff8       ??_C@_1M@JIJIBHDP@?$AAe?$AAs?$AA?9?$AAN?$AAI@ 000000014001cff8     libucrt:lcidtoname_downlevel.obj
 0002:00005008       ??_C@_1M@CGFMKEEK@?$AAe?$AAs?$AA?9?$AAP?$AAR@ 000000014001d008     libucrt:lcidtoname_downlevel.obj
 0002:00005018       ??_C@_1O@ICJHKIIK@?$AAz?$AAh?$AA?9?$AAC?$AAH?$AAT@ 000000014001d018     libucrt:lcidtoname_downlevel.obj
 0002:00005028       ??_C@_15CLNEJCE@?$AAs?$AAr@ 000000014001d028     libucrt:lcidtoname_downlevel.obj
 0002:00005e70       ??_C@_1M@KAHEKEIG@?$AAa?$AAf?$AA?9?$AAz?$AAa@ 000000014001de70     libucrt:lcidtoname_downlevel.obj
 0002:00005e80       ??_C@_1M@GIECOABL@?$AAa?$AAr?$AA?9?$AAa?$AAe@ 000000014001de80     libucrt:lcidtoname_downlevel.obj
 0002:00005e90       ??_C@_1M@BMLMEKGI@?$AAa?$AAr?$AA?9?$AAb?$AAh@ 000000014001de90     libucrt:lcidtoname_downlevel.obj
 0002:00005ea0       ??_C@_1M@DAPFDGGB@?$AAa?$AAr?$AA?9?$AAd?$AAz@ 000000014001dea0     libucrt:lcidtoname_downlevel.obj
 0002:00005eb0       ??_C@_1M@FJNKGKIG@?$AAa?$AAr?$AA?9?$AAe?$AAg@ 000000014001deb0     libucrt:lcidtoname_downlevel.obj
 0002:00005ec0       ??_C@_1M@FLGKKCLO@?$AAa?$AAr?$AA?9?$AAi?$AAq@ 000000014001dec0     libucrt:lcidtoname_downlevel.obj
 0002:00005ed0       ??_C@_1M@GNDIPALM@?$AAa?$AAr?$AA?9?$AAj?$AAo@ 000000014001ded0     libucrt:lcidtoname_downlevel.obj
 0002:00005ee0       ??_C@_1M@DDMJFMGJ@?$AAa?$AAr?$AA?9?$AAk?$AAw@ 000000014001dee0     libucrt:lcidtoname_downlevel.obj
 0002:00005ef0       ??_C@_1M@EJALMLHM@?$AAa?$AAr?$AA?9?$AAl?$AAb@ 000000014001def0     libucrt:lcidtoname_downlevel.obj
 0002:00005f00       ??_C@_1M@MOBDBLOC@?$AAa?$AAr?$AA?9?$AAl?$AAy@ 000000014001df00     libucrt:lcidtoname_downlevel.obj
 0002:00005f10       ??_C@_1M@JAOCLHDH@?$AAa?$AAr?$AA?9?$AAm?$AAa@ 000000014001df10     libucrt:lcidtoname_downlevel.obj
 0002:00005f20       ??_C@_1M@JHPMKJIE@?$AAa?$AAr?$AA?9?$AAo?$AAm@ 000000014001df20     libucrt:lcidtoname_downlevel.obj
 0002:00005f30       ??_C@_1M@OEPGHFNH@?$AAa?$AAr?$AA?9?$AAq?$AAa@ 000000014001df30     libucrt:lcidtoname_downlevel.obj
 0002:00005f40       ??_C@_1M@KJDONENM@?$AAa?$AAr?$AA?9?$AAs?$AAa@ 000000014001df40     libucrt:lcidtoname_downlevel.obj
 0002:00005f50       ??_C@_1M@DMJDKLKM@?$AAa?$AAr?$AA?9?$AAs?$AAy@ 000000014001df50     libucrt:lcidtoname_downlevel.obj
 0002:00005f60       ??_C@_1M@OMFIPEDC@?$AAa?$AAr?$AA?9?$AAt?$AAn@ 000000014001df60     libucrt:lcidtoname_downlevel.obj
 0002:00005f70       ??_C@_1M@IHMHGAON@?$AAa?$AAr?$AA?9?$AAy?$AAe@ 000000014001df70     libucrt:lcidtoname_downlevel.obj
 0002:00005f80       ??_C@_1BG@KDCPGJGB@?$AAa?$AAz?$AA?9?$AAa?$AAz?$AA?9?$AAc?$AAy?$AAr?$AAl@ 000000014001df80     libucrt:lcidtoname_downlevel.obj
 0002:00005f98       ??_C@_1BG@IBCKDDOE@?$AAa?$AAz?$AA?9?$AAa?$AAz?$AA?9?$AAl?$AAa?$AAt?$AAn@ 000000014001df98     libucrt:lcidtoname_downlevel.obj
 0002:00005fb0       ??_C@_1M@EGPFDCPD@?$AAb?$AAe?$AA?9?$AAb?$AAy@ 000000014001dfb0     libucrt:lcidtoname_downlevel.obj
 0002:00005fc0       ??_C@_1M@PCMGMCGC@?$AAb?$AAg?$AA?9?$AAb?$AAg@ 000000014001dfc0     libucrt:lcidtoname_downlevel.obj
 0002:00005fd0       ??_C@_1M@BJBMFGOB@?$AAb?$AAn?$AA?9?$AAi?$AAn@ 000000014001dfd0     libucrt:lcidtoname_downlevel.obj
 0002:00005fe0       ??_C@_1BG@EAKMMACD@?$AAb?$AAs?$AA?9?$AAb?$AAa?$AA?9?$AAl?$AAa?$AAt?$AAn@ 000000014001dfe0     libucrt:lcidtoname_downlevel.obj
 0002:00005ff8       ??_C@_1M@KGADAODK@?$AAc?$AAa?$AA?9?$AAe?$AAs@ 000000014001dff8     libucrt:lcidtoname_downlevel.obj
 0002:00006008       ??_C@_1M@COAJPDHI@?$AAc?$AAs?$AA?9?$AAc?$AAz@ 000000014001e008     libucrt:lcidtoname_downlevel.obj
 0002:00006018       ??_C@_1M@DHBHFONH@?$AAc?$AAy?$AA?9?$AAg?$AAb@ 000000014001e018     libucrt:lcidtoname_downlevel.obj
 0002:00006028       ??_C@_1M@IMGKELGA@?$AAd?$AAa?$AA?9?$AAd?$AAk@ 000000014001e028     libucrt:lcidtoname_downlevel.obj
 0002:00006038       ??_C@_1M@NNDGDNGA@?$AAd?$AAe?$AA?9?$AAa?$AAt@ 000000014001e038     libucrt:lcidtoname_downlevel.obj
 0002:00006048       ??_C@_1M@IKDBHEEM@?$AAd?$AAe?$AA?9?$AAc?$AAh@ 000000014001e048     libucrt:lcidtoname_downlevel.obj
 0002:00006058       ??_C@_1M@GFFOJMCJ@?$AAd?$AAe?$AA?9?$AAd?$AAe@ 000000014001e058     libucrt:lcidtoname_downlevel.obj
 0002:00006068       ??_C@_1M@MDNLKBPM@?$AAd?$AAe?$AA?9?$AAl?$AAi@ 000000014001e068     libucrt:lcidtoname_downlevel.obj
 0002:00006078       ??_C@_1M@NJBEEJNL@?$AAd?$AAe?$AA?9?$AAl?$AAu@ 000000014001e078     libucrt:lcidtoname_downlevel.obj
 0002:00006088       ??_C@_1O@GNNELBAP@?$AAd?$AAi?$AAv?$AA?9?$AAm?$AAv@ 000000014001e088     libucrt:lcidtoname_downlevel.obj
 0002:00006098       ??_C@_1M@EJLEOGAE@?$AAe?$AAl?$AA?9?$AAg?$AAr@ 000000014001e098     libucrt:lcidtoname_downlevel.obj
 0002:000060a8       ??_C@_1M@GMPONJN@?$AAe?$AAn?$AA?9?$AAa?$AAu@ 000000014001e0a8     libucrt:lcidtoname_downlevel.obj
 0002:000060b8       ??_C@_1M@NIDIIPGF@?$AAe?$AAn?$AA?9?$AAb?$AAz@ 000000014001e0b8     libucrt:lcidtoname_downlevel.obj
 0002:000060c8       ??_C@_1M@JEHMIMFO@?$AAe?$AAn?$AA?9?$AAc?$AAa@ 000000014001e0c8     libucrt:lcidtoname_downlevel.obj
 0002:000060d8       ??_C@_1M@IGMJCDLA@?$AAe?$AAn?$AA?9?$AAc?$AAb@ 000000014001e0d8     libucrt:lcidtoname_downlevel.obj
 0002:000060e8       ??_C@_1M@BNFIGBKG@?$AAe?$AAn?$AA?9?$AAg?$AAb@ 000000014001e0e8     libucrt:lcidtoname_downlevel.obj
 0002:000060f8       ??_C@_1M@LKIFDIGP@?$AAe?$AAn?$AA?9?$AAi?$AAe@ 000000014001e0f8     libucrt:lcidtoname_downlevel.obj
 0002:00006108       ??_C@_1M@PJKFGCCO@?$AAe?$AAn?$AA?9?$AAj?$AAm@ 000000014001e108     libucrt:lcidtoname_downlevel.obj
 0002:00006118       ??_C@_1M@KPPKEPBO@?$AAe?$AAn?$AA?9?$AAn?$AAz@ 000000014001e118     libucrt:lcidtoname_downlevel.obj
 0002:00006128       ??_C@_1M@GMDGLDOB@?$AAe?$AAn?$AA?9?$AAp?$AAh@ 000000014001e128     libucrt:lcidtoname_downlevel.obj
 0002:00006138       ??_C@_1M@ONGIBJNA@?$AAe?$AAn?$AA?9?$AAt?$AAt@ 000000014001e138     libucrt:lcidtoname_downlevel.obj
 0002:00006148       ??_C@_1M@LLODPCMM@?$AAe?$AAn?$AA?9?$AAu?$AAs@ 000000014001e148     libucrt:lcidtoname_downlevel.obj
 0002:00006158       ??_C@_1M@LAKFNPAN@?$AAe?$AAn?$AA?9?$AAz?$AAa@ 000000014001e158     libucrt:lcidtoname_downlevel.obj
 0002:00006168       ??_C@_1M@MFNHNHEO@?$AAe?$AAn?$AA?9?$AAz?$AAw@ 000000014001e168     libucrt:lcidtoname_downlevel.obj
 0002:00006178       ??_C@_1M@EJEINPHM@?$AAe?$AAs?$AA?9?$AAa?$AAr@ 000000014001e178     libucrt:lcidtoname_downlevel.obj
 0002:00006188       ??_C@_1M@GNKPCCJA@?$AAe?$AAs?$AA?9?$AAb?$AAo@ 000000014001e188     libucrt:lcidtoname_downlevel.obj
 0002:00006198       ??_C@_1M@LEEGFONL@?$AAe?$AAs?$AA?9?$AAc?$AAl@ 000000014001e198     libucrt:lcidtoname_downlevel.obj
 0002:000061a8       ??_C@_1M@KGPDPBDF@?$AAe?$AAs?$AA?9?$AAc?$AAo@ 000000014001e1a8     libucrt:lcidtoname_downlevel.obj
 0002:000061b8       ??_C@_1M@EIAHOHH@?$AAe?$AAs?$AA?9?$AAc?$AAr@ 000000014001e1b8     libucrt:lcidtoname_downlevel.obj
 0002:000061c8       ??_C@_1M@LLPGMBIN@?$AAe?$AAs?$AA?9?$AAd?$AAo@ 000000014001e1c8     libucrt:lcidtoname_downlevel.obj
 0002:000061d8       ??_C@_1M@DKHMKNJA@?$AAe?$AAs?$AA?9?$AAe?$AAc@ 000000014001e1d8     libucrt:lcidtoname_downlevel.obj
 0002:000061e8       ??_C@_1M@GKGFPKAP@?$AAe?$AAs?$AA?9?$AAe?$AAs@ 000000014001e1e8     libucrt:lcidtoname_downlevel.obj
 0002:000061f8       ??_C@_1M@LKHKGDLN@?$AAe?$AAs?$AA?9?$AAg?$AAt@ 000000014001e1f8     libucrt:lcidtoname_downlevel.obj
 0002:00006208       ??_C@_1M@HEIIGGJD@?$AAe?$AAs?$AA?9?$AAh?$AAn@ 000000014001e208     libucrt:lcidtoname_downlevel.obj
 0002:00006218       ??_C@_1M@FBDHPPGD@?$AAe?$AAs?$AA?9?$AAm?$AAx@ 000000014001e218     libucrt:lcidtoname_downlevel.obj
 0002:00006228       ??_C@_1M@DPAGLNDH@?$AAe?$AAs?$AA?9?$AAn?$AAi@ 000000014001e228     libucrt:lcidtoname_downlevel.obj
 0002:00006238       ??_C@_1M@MDGOPGDD@?$AAe?$AAs?$AA?9?$AAp?$AAa@ 000000014001e238     libucrt:lcidtoname_downlevel.obj
 0002:00006248       ??_C@_1M@EMAMGBGE@?$AAe?$AAs?$AA?9?$AAp?$AAe@ 000000014001e248     libucrt:lcidtoname_downlevel.obj
 0002:00006258       ??_C@_1M@IBMCAOEC@?$AAe?$AAs?$AA?9?$AAp?$AAr@ 000000014001e258     libucrt:lcidtoname_downlevel.obj
 0002:00006268       ??_C@_1M@FGMDIJED@?$AAe?$AAs?$AA?9?$AAp?$AAy@ 000000014001e268     libucrt:lcidtoname_downlevel.obj
 0002:00006278       ??_C@_1M@IIDEOLLL@?$AAe?$AAs?$AA?9?$AAs?$AAv@ 000000014001e278     libucrt:lcidtoname_downlevel.obj
 0002:00006288       ??_C@_1M@GAOBIPA@?$AAe?$AAs?$AA?9?$AAu?$AAy@ 000000014001e288     libucrt:lcidtoname_downlevel.obj
 0002:00006298       ??_C@_1M@JKFFICHJ@?$AAe?$AAs?$AA?9?$AAv?$AAe@ 000000014001e298     libucrt:lcidtoname_downlevel.obj
 0002:000062a8       ??_C@_1M@PNMLOJDF@?$AAe?$AAt?$AA?9?$AAe?$AAe@ 000000014001e2a8     libucrt:lcidtoname_downlevel.obj
 0002:000062b8       ??_C@_1M@GHHLIKEI@?$AAe?$AAu?$AA?9?$AAe?$AAs@ 000000014001e2b8     libucrt:lcidtoname_downlevel.obj
 0002:000062c8       ??_C@_1M@PBNONODE@?$AAf?$AAa?$AA?9?$AAi?$AAr@ 000000014001e2c8     libucrt:lcidtoname_downlevel.obj
 0002:000062d8       ??_C@_1M@JEEHPMIL@?$AAf?$AAi?$AA?9?$AAf?$AAi@ 000000014001e2d8     libucrt:lcidtoname_downlevel.obj
 0002:000062e8       ??_C@_1M@LMDCNDBA@?$AAf?$AAo?$AA?9?$AAf?$AAo@ 000000014001e2e8     libucrt:lcidtoname_downlevel.obj
 0002:000062f8       ??_C@_1M@JKEOHLDK@?$AAf?$AAr?$AA?9?$AAb?$AAe@ 000000014001e2f8     libucrt:lcidtoname_downlevel.obj
 0002:00006308       ??_C@_1M@NOHADPMI@?$AAf?$AAr?$AA?9?$AAc?$AAa@ 000000014001e308     libucrt:lcidtoname_downlevel.obj
 0002:00006318       ??_C@_1M@KDHIHAEC@?$AAf?$AAr?$AA?9?$AAc?$AAh@ 000000014001e318     libucrt:lcidtoname_downlevel.obj
 0002:00006328       ??_C@_1M@MMBBFGAK@?$AAf?$AAr?$AA?9?$AAf?$AAr@ 000000014001e328     libucrt:lcidtoname_downlevel.obj
 0002:00006338       ??_C@_1M@PAFNENNF@?$AAf?$AAr?$AA?9?$AAl?$AAu@ 000000014001e338     libucrt:lcidtoname_downlevel.obj
 0002:00006348       ??_C@_1M@EOHDJGDD@?$AAf?$AAr?$AA?9?$AAm?$AAc@ 000000014001e348     libucrt:lcidtoname_downlevel.obj
 0002:00006358       ??_C@_1M@FAPLLOPF@?$AAg?$AAl?$AA?9?$AAe?$AAs@ 000000014001e358     libucrt:lcidtoname_downlevel.obj
 0002:00006368       ??_C@_1M@FOPBFLOO@?$AAg?$AAu?$AA?9?$AAi?$AAn@ 000000014001e368     libucrt:lcidtoname_downlevel.obj
 0002:00006378       ??_C@_1M@KBMCINPM@?$AAh?$AAe?$AA?9?$AAi?$AAl@ 000000014001e378     libucrt:lcidtoname_downlevel.obj
 0002:00006388       ??_C@_1M@BBPHKFPJ@?$AAh?$AAi?$AA?9?$AAi?$AAn@ 000000014001e388     libucrt:lcidtoname_downlevel.obj
 0002:00006398       ??_C@_1M@PMBNDPHD@?$AAh?$AAr?$AA?9?$AAb?$AAa@ 000000014001e398     libucrt:lcidtoname_downlevel.obj
 0002:000063a8       ??_C@_1M@BPCKOEGE@?$AAh?$AAr?$AA?9?$AAh?$AAr@ 000000014001e3a8     libucrt:lcidtoname_downlevel.obj
 0002:000063b8       ??_C@_1M@GACBMHKE@?$AAh?$AAu?$AA?9?$AAh?$AAu@ 000000014001e3b8     libucrt:lcidtoname_downlevel.obj
 0002:000063c8       ??_C@_1M@MILPAJJC@?$AAh?$AAy?$AA?9?$AAa?$AAm@ 000000014001e3c8     libucrt:lcidtoname_downlevel.obj
 0002:000063d8       ??_C@_1M@BABBICEC@?$AAi?$AAd?$AA?9?$AAi?$AAd@ 000000014001e3d8     libucrt:lcidtoname_downlevel.obj
 0002:000063e8       ??_C@_1M@BIKNHHPF@?$AAi?$AAs?$AA?9?$AAi?$AAs@ 000000014001e3e8     libucrt:lcidtoname_downlevel.obj
 0002:000063f8       ??_C@_1M@NMPCJPHE@?$AAi?$AAt?$AA?9?$AAc?$AAh@ 000000014001e3f8     libucrt:lcidtoname_downlevel.obj
 0002:00006408       ??_C@_1M@GHKGFEDF@?$AAi?$AAt?$AA?9?$AAi?$AAt@ 000000014001e408     libucrt:lcidtoname_downlevel.obj
 0002:00006418       ??_C@_1M@NIEJCJJA@?$AAj?$AAa?$AA?9?$AAj?$AAp@ 000000014001e418     libucrt:lcidtoname_downlevel.obj
 0002:00006428       ??_C@_1M@JILFNBIM@?$AAk?$AAa?$AA?9?$AAg?$AAe@ 000000014001e428     libucrt:lcidtoname_downlevel.obj
 0002:00006438       ??_C@_1M@PACPMGPH@?$AAk?$AAk?$AA?9?$AAk?$AAz@ 000000014001e438     libucrt:lcidtoname_downlevel.obj
 0002:00006448       ??_C@_1M@IELFGMHA@?$AAk?$AAn?$AA?9?$AAi?$AAn@ 000000014001e448     libucrt:lcidtoname_downlevel.obj
 0002:00006458       ??_C@_1O@IBBJHCH@?$AAk?$AAo?$AAk?$AA?9?$AAi?$AAn@ 000000014001e458     libucrt:lcidtoname_downlevel.obj
 0002:00006468       ??_C@_1M@DMHAEOGC@?$AAk?$AAo?$AA?9?$AAk?$AAr@ 000000014001e468     libucrt:lcidtoname_downlevel.obj
 0002:00006478       ??_C@_1M@HBAHBIGA@?$AAk?$AAy?$AA?9?$AAk?$AAg@ 000000014001e478     libucrt:lcidtoname_downlevel.obj
 0002:00006488       ??_C@_1M@KPMILCJG@?$AAl?$AAt?$AA?9?$AAl?$AAt@ 000000014001e488     libucrt:lcidtoname_downlevel.obj
 0002:00006498       ??_C@_1M@BDEKKCA@?$AAl?$AAv?$AA?9?$AAl?$AAv@ 000000014001e498     libucrt:lcidtoname_downlevel.obj
 0002:000064a8       ??_C@_1M@ELCKCCJJ@?$AAm?$AAi?$AA?9?$AAn?$AAz@ 000000014001e4a8     libucrt:lcidtoname_downlevel.obj
 0002:000064b8       ??_C@_1M@CBOOLAPA@?$AAm?$AAk?$AA?9?$AAm?$AAk@ 000000014001e4b8     libucrt:lcidtoname_downlevel.obj
 0002:000064c8       ??_C@_1M@GPHNBJKN@?$AAm?$AAl?$AA?9?$AAi?$AAn@ 000000014001e4c8     libucrt:lcidtoname_downlevel.obj
 0002:000064d8       ??_C@_1M@PABJILIG@?$AAm?$AAn?$AA?9?$AAm?$AAn@ 000000014001e4d8     libucrt:lcidtoname_downlevel.obj
 0002:000064e8       ??_C@_1M@FGBKKIPG@?$AAm?$AAr?$AA?9?$AAi?$AAn@ 000000014001e4e8     libucrt:lcidtoname_downlevel.obj
 0002:000064f8       ??_C@_1M@NDBPDDAL@?$AAm?$AAs?$AA?9?$AAb?$AAn@ 000000014001e4f8     libucrt:lcidtoname_downlevel.obj
 0002:00006508       ??_C@_1M@OPIHOOPI@?$AAm?$AAs?$AA?9?$AAm?$AAy@ 000000014001e508     libucrt:lcidtoname_downlevel.obj
 0002:00006518       ??_C@_1M@PPDBCNFM@?$AAm?$AAt?$AA?9?$AAm?$AAt@ 000000014001e518     libucrt:lcidtoname_downlevel.obj
 0002:00006528       ??_C@_1M@KDJDKMDD@?$AAn?$AAb?$AA?9?$AAn?$AAo@ 000000014001e528     libucrt:lcidtoname_downlevel.obj
 0002:00006538       ??_C@_1M@KFCFLMJP@?$AAn?$AAl?$AA?9?$AAb?$AAe@ 000000014001e538     libucrt:lcidtoname_downlevel.obj
 0002:00006548       ??_C@_1M@KPOPDDGO@?$AAn?$AAl?$AA?9?$AAn?$AAl@ 000000014001e548     libucrt:lcidtoname_downlevel.obj
 0002:00006558       ??_C@_1M@LJKPEMLN@?$AAn?$AAn?$AA?9?$AAn?$AAo@ 000000014001e558     libucrt:lcidtoname_downlevel.obj
 0002:00006568       ??_C@_1M@BDGHHBFL@?$AAn?$AAs?$AA?9?$AAz?$AAa@ 000000014001e568     libucrt:lcidtoname_downlevel.obj
 0002:00006578       ??_C@_1M@IDEHOAP@?$AAp?$AAa?$AA?9?$AAi?$AAn@ 000000014001e578     libucrt:lcidtoname_downlevel.obj
 0002:00006588       ??_C@_1M@HDBKGOGH@?$AAp?$AAl?$AA?9?$AAp?$AAl@ 000000014001e588     libucrt:lcidtoname_downlevel.obj
 0002:00006598       ??_C@_1M@LJLLCMEH@?$AAp?$AAt?$AA?9?$AAb?$AAr@ 000000014001e598     libucrt:lcidtoname_downlevel.obj
 0002:000065a8       ??_C@_1M@NCMONAAL@?$AAp?$AAt?$AA?9?$AAp?$AAt@ 000000014001e5a8     libucrt:lcidtoname_downlevel.obj
 0002:000065b8       ??_C@_1O@EAKMAJDN@?$AAq?$AAu?$AAz?$AA?9?$AAb?$AAo@ 000000014001e5b8     libucrt:lcidtoname_downlevel.obj
 0002:000065c8       ??_C@_1O@BHHPIGDN@?$AAq?$AAu?$AAz?$AA?9?$AAe?$AAc@ 000000014001e5c8     libucrt:lcidtoname_downlevel.obj
 0002:000065d8       ??_C@_1O@GBAPEKMJ@?$AAq?$AAu?$AAz?$AA?9?$AAp?$AAe@ 000000014001e5d8     libucrt:lcidtoname_downlevel.obj
 0002:000065e8       ??_C@_1M@CLGLEFBO@?$AAr?$AAo?$AA?9?$AAr?$AAo@ 000000014001e5e8     libucrt:lcidtoname_downlevel.obj
 0002:000065f8       ??_C@_1M@CEEDODME@?$AAr?$AAu?$AA?9?$AAr?$AAu@ 000000014001e5f8     libucrt:lcidtoname_downlevel.obj
 0002:00006608       ??_C@_1M@HPKKKMPP@?$AAs?$AAa?$AA?9?$AAi?$AAn@ 000000014001e608     libucrt:lcidtoname_downlevel.obj
 0002:00006618       ??_C@_1M@BKMAIGOJ@?$AAs?$AAe?$AA?9?$AAf?$AAi@ 000000014001e618     libucrt:lcidtoname_downlevel.obj
 0002:00006628       ??_C@_1M@NDPIFLFI@?$AAs?$AAe?$AA?9?$AAn?$AAo@ 000000014001e628     libucrt:lcidtoname_downlevel.obj
 0002:00006638       ??_C@_1M@DANKKHJ@?$AAs?$AAe?$AA?9?$AAs?$AAe@ 000000014001e638     libucrt:lcidtoname_downlevel.obj
 0002:00006648       ??_C@_1M@PNBLONPJ@?$AAs?$AAk?$AA?9?$AAs?$AAk@ 000000014001e648     libucrt:lcidtoname_downlevel.obj
 0002:00006658       ??_C@_1M@LFMODOAL@?$AAs?$AAl?$AA?9?$AAs?$AAi@ 000000014001e658     libucrt:lcidtoname_downlevel.obj
 0002:00006668       ??_C@_1O@DFKOMPG@?$AAs?$AAm?$AAa?$AA?9?$AAn?$AAo@ 000000014001e668     libucrt:lcidtoname_downlevel.obj
 0002:00006678       ??_C@_1O@NDKPBNNH@?$AAs?$AAm?$AAa?$AA?9?$AAs?$AAe@ 000000014001e678     libucrt:lcidtoname_downlevel.obj
 0002:00006688       ??_C@_1O@PLLKBHAB@?$AAs?$AAm?$AAj?$AA?9?$AAn?$AAo@ 000000014001e688     libucrt:lcidtoname_downlevel.obj
 0002:00006698       ??_C@_1O@CLEPOGCA@?$AAs?$AAm?$AAj?$AA?9?$AAs?$AAe@ 000000014001e698     libucrt:lcidtoname_downlevel.obj
 0002:000066a8       ??_C@_1O@DLGJGKMK@?$AAs?$AAm?$AAn?$AA?9?$AAf?$AAi@ 000000014001e6a8     libucrt:lcidtoname_downlevel.obj
 0002:000066b8       ??_C@_1O@OJDJGAJC@?$AAs?$AAm?$AAs?$AA?9?$AAf?$AAi@ 000000014001e6b8     libucrt:lcidtoname_downlevel.obj
 0002:000066c8       ??_C@_1M@BOFOGHPB@?$AAs?$AAq?$AA?9?$AAa?$AAl@ 000000014001e6c8     libucrt:lcidtoname_downlevel.obj
 0002:000066d8       ??_C@_1BG@LJBBIPGB@?$AAs?$AAr?$AA?9?$AAb?$AAa?$AA?9?$AAc?$AAy?$AAr?$AAl@ 000000014001e6d8     libucrt:lcidtoname_downlevel.obj
 0002:000066f0       ??_C@_1BG@JLBENFOE@?$AAs?$AAr?$AA?9?$AAb?$AAa?$AA?9?$AAl?$AAa?$AAt?$AAn@ 000000014001e6f0     libucrt:lcidtoname_downlevel.obj
 0002:00006708       ??_C@_1BG@KODPNHE@?$AAs?$AAr?$AA?9?$AAs?$AAp?$AA?9?$AAc?$AAy?$AAr?$AAl@ 000000014001e708     libucrt:lcidtoname_downlevel.obj
 0002:00006720       ??_C@_1BG@CIOGKHPB@?$AAs?$AAr?$AA?9?$AAs?$AAp?$AA?9?$AAl?$AAa?$AAt?$AAn@ 000000014001e720     libucrt:lcidtoname_downlevel.obj
 0002:00006738       ??_C@_1M@NGFJLMAC@?$AAs?$AAv?$AA?9?$AAf?$AAi@ 000000014001e738     libucrt:lcidtoname_downlevel.obj
 0002:00006748       ??_C@_1M@MPJEJAJC@?$AAs?$AAv?$AA?9?$AAs?$AAe@ 000000014001e748     libucrt:lcidtoname_downlevel.obj
 0002:00006758       ??_C@_1M@MPNDHLFK@?$AAs?$AAw?$AA?9?$AAk?$AAe@ 000000014001e758     libucrt:lcidtoname_downlevel.obj
 0002:00006768       ??_C@_1O@KOHBJJI@?$AAs?$AAy?$AAr?$AA?9?$AAs?$AAy@ 000000014001e768     libucrt:lcidtoname_downlevel.obj
 0002:00006778       ??_C@_1M@LDCEFHA@?$AAt?$AAa?$AA?9?$AAi?$AAn@ 000000014001e778     libucrt:lcidtoname_downlevel.obj
 0002:00006788       ??_C@_1M@CNJOFAK@?$AAt?$AAe?$AA?9?$AAi?$AAn@ 000000014001e788     libucrt:lcidtoname_downlevel.obj
 0002:00006798       ??_C@_1M@GNAECACD@?$AAt?$AAh?$AA?9?$AAt?$AAh@ 000000014001e798     libucrt:lcidtoname_downlevel.obj
 0002:000067a8       ??_C@_1M@CHBIHOJO@?$AAt?$AAn?$AA?9?$AAz?$AAa@ 000000014001e7a8     libucrt:lcidtoname_downlevel.obj
 0002:000067b8       ??_C@_1M@GCCMIGPJ@?$AAt?$AAr?$AA?9?$AAt?$AAr@ 000000014001e7b8     libucrt:lcidtoname_downlevel.obj
 0002:000067c8       ??_C@_1M@CELMCNBK@?$AAt?$AAt?$AA?9?$AAr?$AAu@ 000000014001e7c8     libucrt:lcidtoname_downlevel.obj
 0002:000067d8       ??_C@_1M@KLMCELGA@?$AAu?$AAk?$AA?9?$AAu?$AAa@ 000000014001e7d8     libucrt:lcidtoname_downlevel.obj
 0002:000067e8       ??_C@_1M@EPAJJAJF@?$AAu?$AAr?$AA?9?$AAp?$AAk@ 000000014001e7e8     libucrt:lcidtoname_downlevel.obj
 0002:000067f8       ??_C@_1BG@GEGPMCDJ@?$AAu?$AAz?$AA?9?$AAu?$AAz?$AA?9?$AAc?$AAy?$AAr?$AAl@ 000000014001e7f8     libucrt:lcidtoname_downlevel.obj
 0002:00006810       ??_C@_1BG@EGGKJILM@?$AAu?$AAz?$AA?9?$AAu?$AAz?$AA?9?$AAl?$AAa?$AAt?$AAn@ 000000014001e810     libucrt:lcidtoname_downlevel.obj
 0002:00006828       ??_C@_1M@GFOCLFF@?$AAv?$AAi?$AA?9?$AAv?$AAn@ 000000014001e828     libucrt:lcidtoname_downlevel.obj
 0002:00006838       ??_C@_1M@CPAMEDFI@?$AAx?$AAh?$AA?9?$AAz?$AAa@ 000000014001e838     libucrt:lcidtoname_downlevel.obj
 0002:00006848       ??_C@_1O@EBKIFIGN@?$AAz?$AAh?$AA?9?$AAc?$AAh?$AAs@ 000000014001e848     libucrt:lcidtoname_downlevel.obj
 0002:00006858       ??_C@_1O@NMHPGANE@?$AAz?$AAh?$AA?9?$AAc?$AAh?$AAt@ 000000014001e858     libucrt:lcidtoname_downlevel.obj
 0002:00006868       ??_C@_1M@LPINJOMC@?$AAz?$AAh?$AA?9?$AAc?$AAn@ 000000014001e868     libucrt:lcidtoname_downlevel.obj
 0002:00006878       ??_C@_1M@OCJEJODD@?$AAz?$AAh?$AA?9?$AAh?$AAk@ 000000014001e878     libucrt:lcidtoname_downlevel.obj
 0002:00006888       ??_C@_1M@DNDLJINH@?$AAz?$AAh?$AA?9?$AAm?$AAo@ 000000014001e888     libucrt:lcidtoname_downlevel.obj
 0002:00006898       ??_C@_1M@MBFDNDND@?$AAz?$AAh?$AA?9?$AAs?$AAg@ 000000014001e898     libucrt:lcidtoname_downlevel.obj
 0002:000068a8       ??_C@_1M@IMEPLEPE@?$AAz?$AAh?$AA?9?$AAt?$AAw@ 000000014001e8a8     libucrt:lcidtoname_downlevel.obj
 0002:000068b8       ??_C@_1M@BBGHNHJP@?$AAz?$AAu?$AA?9?$AAz?$AAa@ 000000014001e8b8     libucrt:lcidtoname_downlevel.obj
 0002:000068c8       __real@3ff0000000000000    000000014001e8c8     libucrt:ceil.obj
 0002:00006b20       __log10_256_lead           000000014001eb20     libucrt:log10_256_lead_tail_table.obj
 0002:00007330       __log10_256_tail           000000014001f330     libucrt:log10_256_lead_tail_table.obj
 0002:00007b40       __log_F_inv_qword          000000014001fb40     libucrt:log_f_inv_qword_table.obj
 0002:00008350       ??_C@_05HGHHAHAP@log10@    0000000140020350     libucrt:log_special.obj
 0002:00008358       ??_C@_1BA@BALFACEM@?$AAC?$AAO?$AAN?$AAO?$AAU?$AAT?$AA$@ 0000000140020358     libucrt:initcon.obj
 0002:00008390       ??_C@_1BG@PJLDLDGK@?$AAS?$AAh?$AAe?$AAl?$AAl?$AAc?$AAo?$AAd?$AAe?$AAX@ 0000000140020390     MainWnd.obj
 0002:000083a8       ??_C@_1CA@DFNLGHIN@?$AAU?$AAI?$AA_?$AAS?$AAC?$AAX?$AA_?$AAM?$AAA?$AAI?$AAN?$AA_?$AAW?$AAN?$AAD@ 00000001400203a8     MainWnd.obj
 0002:000083c8       ??_C@_1BI@IOGCEKOO@?$AAM?$AAa?$AAi?$AAn?$AAW?$AAn?$AAd?$AA?4?$AAx?$AAm?$AAl@ 00000001400203c8     MainWnd.obj
 0002:000083e0       ??_C@_11LOCGONAA@@         00000001400203e0     MainWnd.obj
 0002:000083e8       ??_C@_1BE@CBILDPD@?$AAt?$AAa?$AAb?$AAP?$AAa?$AAn?$AAe?$AAl?$AAs@ 00000001400203e8     MainWnd.obj
 0002:00008400       ??_C@_1BC@LAFIGIKE@?$AAt?$AAa?$AAb?$AAT?$AAo?$AAo?$AAl?$AAs@ 0000000140020400     MainWnd.obj
 0002:00008418       ??_C@_1BE@JDNNMPPN@?$AAt?$AAx?$AAt?$AAW?$AAi?$AAn?$AAA?$AAP?$AAI@ 0000000140020418     MainWnd.obj
 0002:00008430       ??_C@_1BM@FDOOIHFE@?$AAt?$AAx?$AAt?$AAM?$AAo?$AAd?$AAu?$AAl?$AAe?$AAN?$AAa?$AAm?$AAe@ 0000000140020430     MainWnd.obj
 0002:00008450       ??_C@_1BG@ENACCNNL@?$AAt?$AAx?$AAt?$AAA?$AAp?$AAi?$AAH?$AAa?$AAs?$AAh@ 0000000140020450     MainWnd.obj
 0002:00008468       ??_C@_1BE@JOCBBAKD@?$AAt?$AAx?$AAt?$AAS?$AAt?$AAr?$AAS?$AAr?$AAc@ 0000000140020468     MainWnd.obj
 0002:00008480       ??_C@_1BE@OOMNJEBC@?$AAt?$AAx?$AAt?$AAS?$AAt?$AAr?$AAD?$AAs?$AAt@ 0000000140020480     MainWnd.obj
 0002:00008498       ??_C@_1BM@PLAKLCJL@?$AAt?$AAx?$AAt?$AAS?$AAc?$AAF?$AAi?$AAl?$AAe?$AAN?$AAa?$AAm?$AAe@ 0000000140020498     MainWnd.obj
 0002:000084b8       ??_C@_1BM@OEGMJBFF@?$AAt?$AAx?$AAt?$AAS?$AAc?$AAF?$AAi?$AAl?$AAe?$AAS?$AAi?$AAz?$AAe@ 00000001400204b8     MainWnd.obj
 0002:000084d8       ??_C@_1CC@EKNNMNLA@?$AAt?$AAx?$AAt?$AAS?$AAc?$AAE?$AAn?$AAt?$AAr?$AAy?$AAO?$AAf?$AAf?$AAs?$AAe@ 00000001400204d8     MainWnd.obj
 0002:00008500       ??_C@_1BE@JLALOODK@?$AAt?$AAx?$AAt?$AAS?$AAc?$AAS?$AAi?$AAz?$AAe@ 0000000140020500     MainWnd.obj
 0002:00008518       ??_C@_1BG@PBMKECCO@?$AAt?$AAx?$AAt?$AAB?$AAi?$AAn?$AAP?$AAa?$AAt?$AAh@ 0000000140020518     MainWnd.obj
 0002:00008530       ??_C@_1BG@KJFAAFMA@?$AAt?$AAx?$AAt?$AAM?$AAa?$AAp?$AAP?$AAa?$AAt?$AAh@ 0000000140020530     MainWnd.obj
 0002:00008548       ??_C@_1BE@NCCFHGHN@?$AAt?$AAx?$AAt?$AAF?$AAi?$AAl?$AAt?$AAe?$AAr@ 0000000140020548     MainWnd.obj
 0002:00008560       ??_C@_1BG@GJLMKDOI@?$AAt?$AAx?$AAt?$AAF?$AAu?$AAn?$AAP?$AAa?$AAt?$AAh@ 0000000140020560     MainWnd.obj
 0002:00008578       ??_C@_1BG@MLFPFEFI@?$AAl?$AAa?$AAb?$AAF?$AAu?$AAn?$AAN?$AAu?$AAm?$AAb@ 0000000140020578     MainWnd.obj
 0002:00008590       ??_C@_1BC@KMOKHOP@?$AAl?$AAi?$AAs?$AAt?$AAF?$AAu?$AAn?$AAs@ 0000000140020590     MainWnd.obj
 0002:000085a8       ??_C@_1CG@EGEMCFOL@?$AAb?$AAt?$AAn?$AAL?$AAo?$AAa?$AAd?$AAM?$AAa?$AAp?$AAF?$AAu?$AAn?$AAs?$AAP@ 00000001400205a8     MainWnd.obj
 0002:000085d0       ??_C@_1BM@HGPLKIHI@?$AAs?$AAe?$AAl?$AAe?$AAc?$AAt?$AAc?$AAh?$AAa?$AAn?$AAg?$AAe?$AAd@ 00000001400205d0     MainWnd.obj
 0002:000085f0       ??_C@_1BI@OOFPLDKD@?$AAt?$AAe?$AAx?$AAt?$AAc?$AAh?$AAa?$AAn?$AAg?$AAe?$AAd@ 00000001400205f0     MainWnd.obj
 0002:00008608       ??_C@_1BI@LKHIDK@?$AAb?$AAt?$AAn?$AAC?$AAa?$AAl?$AAc?$AAH?$AAa?$AAs?$AAh@ 0000000140020608     MainWnd.obj
 0002:00008620       ??_C@_1BI@IKFACGEN@?$AAb?$AAt?$AAn?$AAC?$AAo?$AAp?$AAy?$AAH?$AAa?$AAs?$AAh@ 0000000140020620     MainWnd.obj
 0002:00008638       ??_C@_1CK@PLLBGJMO@?$AAb?$AAt?$AAn?$AAW?$AAi?$AAd?$AAe?$AAS?$AAt?$AAr?$AA2?$AAD?$AAw?$AAo?$AAr@ 0000000140020638     MainWnd.obj
 0002:00008668       ??_C@_1CK@NAECHPMG@?$AAb?$AAt?$AAn?$AAM?$AAu?$AAl?$AAt?$AAS?$AAt?$AAr?$AA2?$AAD?$AAo?$AAw?$AAr@ 0000000140020668     MainWnd.obj
 0002:00008698       ??_C@_1BI@OOJCABO@?$AAb?$AAt?$AAn?$AAC?$AAo?$AAp?$AAy?$AAD?$AAe?$AAs?$AAt@ 0000000140020698     MainWnd.obj
 0002:000086b0       ??_C@_1BE@DEHCIJGL@?$AAb?$AAt?$AAn?$AAV?$AAs?$AAE?$AAx?$AAe?$AAc@ 00000001400206b0     MainWnd.obj
 0002:000086c8       ??_C@_1BG@KLKFOEOH@?$AAb?$AAt?$AAn?$AAM?$AAe?$AAm?$AAE?$AAx?$AAe?$AAc@ 00000001400206c8     MainWnd.obj
 0002:000086e0       ??_C@_1BM@BDCEPBFG@?$AAb?$AAt?$AAn?$AAI?$AAn?$AAj?$AAe?$AAc?$AAt?$AAE?$AAx?$AAe?$AAc@ 00000001400206e0     MainWnd.obj
 0002:00008700       ??_C@_1BA@DDLBBLDA@?$AAb?$AAt?$AAn?$AAD?$AAu?$AAm?$AAp@ 0000000140020700     MainWnd.obj
 0002:00008710       ??_C@_1BG@HCONHPFC@?$AAb?$AAt?$AAn?$AAR?$AAe?$AAa?$AAd?$AAM?$AAa?$AAp@ 0000000140020710     MainWnd.obj
 0002:00008728       ??_C@_1BM@BCBPEJCP@?$AAb?$AAt?$AAn?$AAR?$AAa?$AAn?$AAd?$AAo?$AAm?$AAF?$AAu?$AAn?$AAs@ 0000000140020728     MainWnd.obj
 0002:00008748       ??_C@_1BK@CKPMIKCG@?$AAb?$AAt?$AAn?$AAW?$AAr?$AAi?$AAt?$AAe?$AAF?$AAu?$AAn?$AAs@ 0000000140020748     MainWnd.obj
 0002:00008768       ??_C@_1BE@ODJMPOMP@?$AAb?$AAt?$AAn?$AAE?$AAx?$AAe?$AAc?$AAS?$AAc@ 0000000140020768     MainWnd.obj
 0002:00008780       ??_C@_1BG@MFNMPGJD@?$AAb?$AAt?$AAn?$AAB?$AAi?$AAn?$AAP?$AAa?$AAt?$AAh@ 0000000140020780     MainWnd.obj
 0002:00008798       ??_C@_1BG@JNEGLBHN@?$AAb?$AAt?$AAn?$AAM?$AAa?$AAp?$AAP?$AAa?$AAt?$AAh@ 0000000140020798     MainWnd.obj
 0002:000087b0       ??_C@_1BG@FNKKBHFF@?$AAb?$AAt?$AAn?$AAF?$AAu?$AAn?$AAP?$AAa?$AAt?$AAh@ 00000001400207b0     MainWnd.obj
 0002:000087c8       ??_C@_1BC@LFBDJPAH@?$AAo?$AAp?$AAt?$AAT?$AAo?$AAo?$AAl?$AAs@ 00000001400207c8     MainWnd.obj
 0002:000087e0       ??_C@_1BK@GIPDNLNC@?$AAo?$AAp?$AAt?$AAS?$AAh?$AAe?$AAl?$AAl?$AAc?$AAo?$AAd?$AAe@ 00000001400207e0     MainWnd.obj
 0002:00008800       ??_C@_1O@IHNOGOMK@?$AAo?$AAp?$AAt?$AAA?$AAp?$AAi@ 0000000140020800     MainWnd.obj
 0002:00008810       ??_C@_1BE@LELPJEPA@?$AAo?$AAp?$AAt?$AAS?$AAt?$AAr?$AAi?$AAn?$AAg@ 0000000140020810     MainWnd.obj
 0002:00008828       ??_C@_1BA@CINDJHJA@?$AAo?$AAp?$AAt?$AAT?$AAe?$AAs?$AAt@ 0000000140020828     MainWnd.obj
 0002:00008838       ??_C@_1O@GNPNAMOC@?$AA0?$AAx?$AA?$CF?$AA0?$AA8?$AAX@ 0000000140020838     MainWnd.obj
 0002:00008848       ??_C@_13GCIFAHHO@?$AA?$HL@ 0000000140020848     MainWnd.obj
 0002:00008850       ??_C@_1BA@IPBKKADO@?$AA0?$AAx?$AA?$CF?$AA0?$AA8?$AAX?$AA?0@ 0000000140020850     MainWnd.obj
 0002:00008860       ??_C@_15NOKLDPOD@?$AA?$HN?$AA?$DL@ 0000000140020860     MainWnd.obj
 0002:00008868       ??_C@_0BD@IHADBBLH@?$CDdefine?5HASH_?$CFS?5?$CFS@ 0000000140020868     MainWnd.obj
 0002:0000887c       ??_C@_15KNBIKKIN@?$AA?$CF?$AAd@ 000000014002087c     MainWnd.obj
 0002:00008890       ??_C@_1EA@ODGHFFIN@?$AAc?$AA?3?$AA?2?$AAw?$AAi?$AAn?$AAd?$AAo?$AAw?$AAs?$AA?2?$AAs?$AAy?$AAs?$AAt@ 0000000140020890     MainWnd.obj
 0002:000088d0       ??_C@_1BG@DENFMIH@?$AA?$CF?$AAs?$AA?2?$AAm?$AAa?$AAp?$AA?4?$AAt?$AAx?$AAt@ 00000001400208d0     MainWnd.obj
 0002:000088e8       ??_C@_1BI@LMCFNHBJ@?$AA?$CF?$AAs?$AA?2?$AAf?$AAu?$AAn?$AAs?$AA?4?$AAt?$AAx?$AAt@ 00000001400208e8     MainWnd.obj
 0002:00008900       ??_C@_13HOIJIPNN@?$AA?5@   0000000140020900     MainWnd.obj
 0002:00008908       ??_C@_0M@POIEIIPD@Shellcode?$AN?6@ 0000000140020908     MainWnd.obj
 0002:00008914       ??_C@_02PCIJFNDE@?$AN?6@   0000000140020914     MainWnd.obj
 0002:00008918       ??_C@_0N@IFHHIOCH@EndShellcode@ 0000000140020918     MainWnd.obj
 0002:00008928       ??_C@_17JIOJEDGC@?$AAs?$AAc?$AAx@ 0000000140020928     MainWnd.obj
 0002:00008930       ??_C@_1BM@JOJBDDMM@?$AAw?$AAr?$AAi?$AAt?$AAe?$AA?5?$AAf?$AAu?$AAn?$AAs?$AA?5?$AAo?$AAk@ 0000000140020930     MainWnd.obj
 0002:00008950       ??_C@_1CE@OCEMCPC@?$AAw?$AAr?$AAi?$AAt?$AAe?$AA?5?$AAf?$AAu?$AAn?$AAs?$AA?5?$AAf?$AAa?$AAi?$AAl@ 0000000140020950     MainWnd.obj
 0002:00008978       ??_C@_19PGJFMJNJ@?$AA?4?$AAi?$AAn?$AAi@ 0000000140020978     MainWnd.obj
 0002:00008988       ??_C@_1BA@JCAGBOBK@?$AAB?$AAi?$AAn?$AAP?$AAa?$AAt?$AAh@ 0000000140020988     MainWnd.obj
 0002:00008998       ??_C@_17MGABILDM@?$AAS?$AAC?$AAX@ 0000000140020998     MainWnd.obj
 0002:000089a0       ??_C@_1BA@MKJMFJPE@?$AAM?$AAa?$AAp?$AAP?$AAa?$AAt?$AAh@ 00000001400209a0     MainWnd.obj
 0002:000089b0       ??_C@_1BC@FGMMKNKD@?$AAF?$AAu?$AAn?$AAs?$AAP?$AAa?$AAt?$AAh@ 00000001400209b0     MainWnd.obj
 0002:000089c8       ??_C@_1O@FCMNCOB@?$AAS?$AAc?$AAF?$AAi?$AAl?$AAe@ 00000001400209c8     MainWnd.obj
 0002:000089d8       ??_C@_1BC@FHIEBPAP@?$AAB?$AAi?$AAn?$AA?5?$AAP?$AAa?$AAt?$AAh@ 00000001400209d8     MainWnd.obj
 0002:000089f0       ??_C@_1BC@HPMBENME@?$AAM?$AAa?$AAp?$AA?5?$AAP?$AAa?$AAt?$AAh@ 00000001400209f0     MainWnd.obj
 0002:00008a08       ??_C@_1BE@DAOLCMAC@?$AAF?$AAu?$AAn?$AAs?$AA?5?$AAP?$AAa?$AAt?$AAh@ 0000000140020a08     MainWnd.obj
 0002:00008a28       ??_7CMainWnd@@6BIDialogBuilderCallback@DuiLib@@@ 0000000140020a28     MainWnd.obj
 0002:00008a38       ??_7CMainWnd@@6BIMessageFilterUI@DuiLib@@@ 0000000140020a38     MainWnd.obj
 0002:00008a48       ??_7CMainWnd@@6BINotifyUI@DuiLib@@@ 0000000140020a48     MainWnd.obj
 0002:00008a58       ??_7CMainWnd@@6BCNotifyPump@DuiLib@@@ 0000000140020a58     MainWnd.obj
 0002:00008a68       ??_7CMainWnd@@6BCWindowWnd@DuiLib@@@ 0000000140020a68     MainWnd.obj
 0002:00008b88       ??_7CNotifyPump@DuiLib@@6B@ 0000000140020b88     MainWnd.obj
 0002:00008b98       ??_7WindowImplBase@DuiLib@@6BCWindowWnd@1@@ 0000000140020b98     MainWnd.obj
 0002:00008cb8       ??_7WindowImplBase@DuiLib@@6BCNotifyPump@1@@ 0000000140020cb8     MainWnd.obj
 0002:00008cc8       ??_7WindowImplBase@DuiLib@@6BINotifyUI@1@@ 0000000140020cc8     MainWnd.obj
 0002:00008cd8       ??_7WindowImplBase@DuiLib@@6BIMessageFilterUI@1@@ 0000000140020cd8     MainWnd.obj
 0002:00008ce8       ??_7WindowImplBase@DuiLib@@6BIDialogBuilderCallback@1@@ 0000000140020ce8     MainWnd.obj
 0002:00008fa0       ??_7bad_cast@std@@6B@      0000000140020fa0     libvcruntime:rtti.obj
 0002:00008fb8       ??_7bad_typeid@std@@6B@    0000000140020fb8     libvcruntime:rtti.obj
 0002:00008fd0       ??_7__non_rtti_object@std@@6B@ 0000000140020fd0     libvcruntime:rtti.obj
 0002:00008fe0       ??_C@_0CB@CGKGGDFI@Access?5violation?5?9?5no?5RTTI?5data@ 0000000140020fe0     libvcruntime:rtti.obj
 0002:00009008       ??_C@_0BC@JNJNLHBP@Bad?5dynamic_cast?$CB@ 0000000140021008     libvcruntime:rtti.obj
 0002:00009090       _load_config_used          0000000140021090     LIBCMT:loadcfg.obj
 0002:00009190       ??_R4type_info@@6B@        0000000140021190     LIBCMT:std_type_info_static.obj
 0002:000091b8       ??_R3type_info@@8          00000001400211b8     LIBCMT:std_type_info_static.obj
 0002:000091d0       ??_R2type_info@@8          00000001400211d0     LIBCMT:std_type_info_static.obj
 0002:000091e0       ??_R1A@?0A@EA@type_info@@8 00000001400211e0     LIBCMT:std_type_info_static.obj
 0002:00009208       ??_R4exception@std@@6B@    0000000140021208     LIBCMT:throw_bad_alloc.obj
 0002:00009230       ??_R3exception@std@@8      0000000140021230     LIBCMT:throw_bad_alloc.obj
 0002:00009248       ??_R2exception@std@@8      0000000140021248     LIBCMT:throw_bad_alloc.obj
 0002:00009258       ??_R1A@?0A@EA@exception@std@@8 0000000140021258     LIBCMT:throw_bad_alloc.obj
 0002:00009280       ??_R4bad_alloc@std@@6B@    0000000140021280     LIBCMT:throw_bad_alloc.obj
 0002:000092a8       ??_R3bad_alloc@std@@8      00000001400212a8     LIBCMT:throw_bad_alloc.obj
 0002:000092c0       ??_R2bad_alloc@std@@8      00000001400212c0     LIBCMT:throw_bad_alloc.obj
 0002:000092d8       ??_R1A@?0A@EA@bad_alloc@std@@8 00000001400212d8     LIBCMT:throw_bad_alloc.obj
 0002:00009300       ??_R4bad_array_new_length@std@@6B@ 0000000140021300     LIBCMT:throw_bad_alloc.obj
 0002:00009328       ??_R3bad_array_new_length@std@@8 0000000140021328     LIBCMT:throw_bad_alloc.obj
 0002:00009340       ??_R2bad_array_new_length@std@@8 0000000140021340     LIBCMT:throw_bad_alloc.obj
 0002:00009360       ??_R1A@?0A@EA@bad_array_new_length@std@@8 0000000140021360     LIBCMT:throw_bad_alloc.obj
 0002:00009388       ??_R4bad_exception@std@@6B@ 0000000140021388     libvcruntime:frame.obj
 0002:000093b0       ??_R3bad_exception@std@@8  00000001400213b0     libvcruntime:frame.obj
 0002:000093c8       ??_R2bad_exception@std@@8  00000001400213c8     libvcruntime:frame.obj
 0002:000093e0       ??_R1A@?0A@EA@bad_exception@std@@8 00000001400213e0     libvcruntime:frame.obj
 0002:00009408       ??_R2CMainWnd@@8           0000000140021408     MainWnd.obj
 0002:00009448       ??_R1A@?0A@EA@CMainWnd@@8  0000000140021448     MainWnd.obj
 0002:00009470       ??_R3CMainWnd@@8           0000000140021470     MainWnd.obj
 0002:00009488       ??_R4CMainWnd@@6BIDialogBuilderCallback@DuiLib@@@ 0000000140021488     MainWnd.obj
 0002:000094b0       ??_R4CMainWnd@@6BIMessageFilterUI@DuiLib@@@ 00000001400214b0     MainWnd.obj
 0002:000094d8       ??_R4CMainWnd@@6BINotifyUI@DuiLib@@@ 00000001400214d8     MainWnd.obj
 0002:00009500       ??_R4CMainWnd@@6BCNotifyPump@DuiLib@@@ 0000000140021500     MainWnd.obj
 0002:00009528       ??_R4CMainWnd@@6BCWindowWnd@DuiLib@@@ 0000000140021528     MainWnd.obj
 0002:00009550       ??_R4CNotifyPump@DuiLib@@6B@ 0000000140021550     MainWnd.obj
 0002:00009578       ??_R4WindowImplBase@DuiLib@@6BCWindowWnd@1@@ 0000000140021578     MainWnd.obj
 0002:000095a0       ??_R4WindowImplBase@DuiLib@@6BCNotifyPump@1@@ 00000001400215a0     MainWnd.obj
 0002:000095c8       ??_R4WindowImplBase@DuiLib@@6BINotifyUI@1@@ 00000001400215c8     MainWnd.obj
 0002:000095f0       ??_R4WindowImplBase@DuiLib@@6BIMessageFilterUI@1@@ 00000001400215f0     MainWnd.obj
 0002:00009618       ??_R1A@?0A@EA@WindowImplBase@DuiLib@@8 0000000140021618     MainWnd.obj
 0002:00009640       ??_R2CWindowWnd@DuiLib@@8  0000000140021640     MainWnd.obj
 0002:00009650       ??_R3CWindowWnd@DuiLib@@8  0000000140021650     MainWnd.obj
 0002:00009668       ??_R1A@?0A@EA@CWindowWnd@DuiLib@@8 0000000140021668     MainWnd.obj
 0002:00009690       ??_R1A@?0A@EA@CNotifyPump@DuiLib@@8 0000000140021690     MainWnd.obj
 0002:000096b8       ??_R2CNotifyPump@DuiLib@@8 00000001400216b8     MainWnd.obj
 0002:000096c8       ??_R3CNotifyPump@DuiLib@@8 00000001400216c8     MainWnd.obj
 0002:000096e0       ??_R1CA@?0A@EA@CNotifyPump@DuiLib@@8 00000001400216e0     MainWnd.obj
 0002:00009708       ??_R1A@?0A@EA@INotifyUI@DuiLib@@8 0000000140021708     MainWnd.obj
 0002:00009730       ??_R2INotifyUI@DuiLib@@8   0000000140021730     MainWnd.obj
 0002:00009740       ??_R3INotifyUI@DuiLib@@8   0000000140021740     MainWnd.obj
 0002:00009758       ??_R1DI@?0A@EA@INotifyUI@DuiLib@@8 0000000140021758     MainWnd.obj
 0002:00009780       ??_R1A@?0A@EA@IMessageFilterUI@DuiLib@@8 0000000140021780     MainWnd.obj
 0002:000097a8       ??_R2IMessageFilterUI@DuiLib@@8 00000001400217a8     MainWnd.obj
 0002:000097b8       ??_R3IMessageFilterUI@DuiLib@@8 00000001400217b8     MainWnd.obj
 0002:000097d0       ??_R1EA@?0A@EA@IMessageFilterUI@DuiLib@@8 00000001400217d0     MainWnd.obj
 0002:000097f8       ??_R1A@?0A@EA@IDialogBuilderCallback@DuiLib@@8 00000001400217f8     MainWnd.obj
 0002:00009820       ??_R2IDialogBuilderCallback@DuiLib@@8 0000000140021820     MainWnd.obj
 0002:00009830       ??_R3IDialogBuilderCallback@DuiLib@@8 0000000140021830     MainWnd.obj
 0002:00009848       ??_R1EI@?0A@EA@IDialogBuilderCallback@DuiLib@@8 0000000140021848     MainWnd.obj
 0002:00009870       ??_R2WindowImplBase@DuiLib@@8 0000000140021870     MainWnd.obj
 0002:000098a8       ??_R3WindowImplBase@DuiLib@@8 00000001400218a8     MainWnd.obj
 0002:000098c0       ??_R4WindowImplBase@DuiLib@@6BIDialogBuilderCallback@1@@ 00000001400218c0     MainWnd.obj
 0002:000098e8       ??_R4bad_cast@std@@6B@     00000001400218e8     libvcruntime:rtti.obj
 0002:00009910       ??_R3bad_cast@std@@8       0000000140021910     libvcruntime:rtti.obj
 0002:00009928       ??_R2bad_cast@std@@8       0000000140021928     libvcruntime:rtti.obj
 0002:00009940       ??_R1A@?0A@EA@bad_cast@std@@8 0000000140021940     libvcruntime:rtti.obj
 0002:00009968       ??_R4bad_typeid@std@@6B@   0000000140021968     libvcruntime:rtti.obj
 0002:00009990       ??_R3bad_typeid@std@@8     0000000140021990     libvcruntime:rtti.obj
 0002:000099a8       ??_R2bad_typeid@std@@8     00000001400219a8     libvcruntime:rtti.obj
 0002:000099c0       ??_R1A@?0A@EA@bad_typeid@std@@8 00000001400219c0     libvcruntime:rtti.obj
 0002:000099e8       ??_R4__non_rtti_object@std@@6B@ 00000001400219e8     libvcruntime:rtti.obj
 0002:00009a10       ??_R3__non_rtti_object@std@@8 0000000140021a10     libvcruntime:rtti.obj
 0002:00009a28       ??_R2__non_rtti_object@std@@8 0000000140021a28     libvcruntime:rtti.obj
 0002:00009a48       ??_R1A@?0A@EA@__non_rtti_object@std@@8 0000000140021a48     libvcruntime:rtti.obj
 0002:00009da8       __rtc_iaa                  0000000140021da8     LIBCMT:initsect.obj
 0002:00009db0       __rtc_izz                  0000000140021db0     LIBCMT:initsect.obj
 0002:00009db8       __rtc_taa                  0000000140021db8     LIBCMT:initsect.obj
 0002:00009dc0       __rtc_tzz                  0000000140021dc0     LIBCMT:initsect.obj
 0002:0000b438       _TI2?AVbad_alloc@std@@     0000000140023438     LIBCMT:throw_bad_alloc.obj
 0002:0000b458       _CTA2?AVbad_alloc@std@@    0000000140023458     LIBCMT:throw_bad_alloc.obj
 0002:0000b470       _CT??_R0?AVbad_alloc@std@@@8??0bad_alloc@std@@QEAA@AEBV01@@Z24 0000000140023470     LIBCMT:throw_bad_alloc.obj
 0002:0000b498       _CT??_R0?AVexception@std@@@8??0exception@std@@QEAA@AEBV01@@Z24 0000000140023498     LIBCMT:throw_bad_alloc.obj
 0002:0000b4c0       _TI3?AVbad_array_new_length@std@@ 00000001400234c0     LIBCMT:throw_bad_alloc.obj
 0002:0000b4e0       _CTA3?AVbad_array_new_length@std@@ 00000001400234e0     LIBCMT:throw_bad_alloc.obj
 0002:0000b500       _CT??_R0?AVbad_array_new_length@std@@@8??0bad_array_new_length@std@@QEAA@AEBV01@@Z24 0000000140023500     LIBCMT:throw_bad_alloc.obj
 0002:0000b528       _TI2?AVbad_exception@std@@ 0000000140023528     libvcruntime:frame.obj
 0002:0000b548       _CTA2?AVbad_exception@std@@ 0000000140023548     libvcruntime:frame.obj
 0002:0000b560       _CT??_R0?AVbad_exception@std@@@8??0bad_exception@std@@QEAA@AEBV01@@Z24 0000000140023560     libvcruntime:frame.obj
 0002:0000b588       _TI3?AV__non_rtti_object@std@@ 0000000140023588     libvcruntime:rtti.obj
 0002:0000b5a8       _CTA3?AV__non_rtti_object@std@@ 00000001400235a8     libvcruntime:rtti.obj
 0002:0000b5c8       _CT??_R0?AV__non_rtti_object@std@@@8??0__non_rtti_object@std@@QEAA@AEBV01@@Z24 00000001400235c8     libvcruntime:rtti.obj
 0002:0000b5f0       _CT??_R0?AVbad_typeid@std@@@8??0bad_typeid@std@@QEAA@AEBV01@@Z24 00000001400235f0     libvcruntime:rtti.obj
 0002:0000b618       _TI2?AVbad_cast@std@@      0000000140023618     libvcruntime:rtti.obj
 0002:0000b638       _CTA2?AVbad_cast@std@@     0000000140023638     libvcruntime:rtti.obj
 0002:0000b650       _CT??_R0?AVbad_cast@std@@@8??0bad_cast@std@@QEAA@AEBV01@@Z24 0000000140023650     libvcruntime:rtti.obj
 0002:0000b674       __IMPORT_DESCRIPTOR_KERNEL32 0000000140023674     kernel32:KERNEL32.dll
 0002:0000b688       __IMPORT_DESCRIPTOR_USER32 0000000140023688     user32:USER32.dll
 0002:0000b69c       __IMPORT_DESCRIPTOR_SHELL32 000000014002369c     shell32:SHELL32.dll
 0002:0000b6b0       __IMPORT_DESCRIPTOR_ole32  00000001400236b0     ole32:ole32.dll
 0002:0000b6c4       __IMPORT_DESCRIPTOR_DuiLib 00000001400236c4     DuiLib:DuiLib.dll
 0002:0000b6d8       __IMPORT_DESCRIPTOR_SHLWAPI 00000001400236d8     Shlwapi:SHLWAPI.dll
 0002:0000b6ec       __NULL_IMPORT_DESCRIPTOR   00000001400236ec     kernel32:KERNEL32.dll
 0003:00000000       __scrt_native_dllmain_reason 0000000140026000     LIBCMT:utility.obj
 0003:00000004       __scrt_default_matherr     0000000140026004     LIBCMT:matherr.obj
 0003:00000008       __isa_available            0000000140026008     LIBCMT:cpu_disp.obj
 0003:0000000c       __isa_enabled              000000014002600c     LIBCMT:cpu_disp.obj
 0003:00000010       __memcpy_nt_iters          0000000140026010     LIBCMT:cpu_disp.obj
 0003:00000018       __security_cookie_complement 0000000140026018     LIBCMT:gs_cookie.obj
 0003:00000020       __security_cookie          0000000140026020     LIBCMT:gs_cookie.obj
 0003:00000040       __abort_behavior           0000000140026040     libucrt:abort.obj
 0003:00000060       _iob                       0000000140026060     libucrt:_file.obj
 0003:00000170       __acrt_initial_locale_data 0000000140026170     libucrt:nlsdata.obj
 0003:000002c8       __acrt_initial_locale_pointers 00000001400262c8     libucrt:nlsdata.obj
 0003:000002d8       __acrt_wide_c_locale_string 00000001400262d8     libucrt:nlsdata.obj
 0003:000002e0       _pwctype                   00000001400262e0     libucrt:ctype.obj
 0003:000002f0       __acrt_initial_multibyte_data 00000001400262f0     libucrt:mbctype.obj
 0003:00000830       __acrt_lconv_c             0000000140026830     libucrt:localeconv.obj
 0003:000008c8       __acrt_lconv_static_decimal 00000001400268c8     libucrt:localeconv.obj
 0003:000008cc       __acrt_lconv_static_W_decimal 00000001400268cc     libucrt:localeconv.obj
 0003:000008d0       __globallocalestatus       00000001400268d0     libucrt:glstatus.obj
 0003:000008e0       _lookuptrailbytes          00000001400268e0     libucrt:read.obj
 0003:00000a00       _fltused                   0000000140026a00     LIBCMT:fltused.obj
 0003:00000a10       ?g_moduleInfos@@3PAU_MODULE_INFO_@@A 0000000140026a10     MainWnd.obj
 0003:00001208       ??_R0?AVtype_info@@@8      0000000140027208     LIBCMT:std_type_info_static.obj
 0003:00001228       ??_R0?AVbad_alloc@std@@@8  0000000140027228     LIBCMT:throw_bad_alloc.obj
 0003:00001250       ??_R0?AVbad_array_new_length@std@@@8 0000000140027250     LIBCMT:throw_bad_alloc.obj
 0003:00001280       ??_R0?AVbad_exception@std@@@8 0000000140027280     libvcruntime:frame.obj
 0003:000012a8       ??_R0?AVCMainWnd@@@8       00000001400272a8     MainWnd.obj
 0003:000012c8       ??_R0?AVexception@std@@@8  00000001400272c8     MainWnd.obj
 0003:000012f0       ??_R0?AVCListUI@DuiLib@@@8 00000001400272f0     MainWnd.obj
 0003:00001318       ??_R0?AVCLabelUI@DuiLib@@@8 0000000140027318     MainWnd.obj
 0003:00001340       ??_R0?AVCControlUI@DuiLib@@@8 0000000140027340     MainWnd.obj
 0003:00001368       ??_R0?AVCEditUI@DuiLib@@@8 0000000140027368     MainWnd.obj
 0003:00001390       ??_R0?AVWindowImplBase@DuiLib@@@8 0000000140027390     MainWnd.obj
 0003:000013c0       ??_R0?AVCWindowWnd@DuiLib@@@8 00000001400273c0     MainWnd.obj
 0003:000013e8       ??_R0?AVCNotifyPump@DuiLib@@@8 00000001400273e8     MainWnd.obj
 0003:00001418       ??_R0?AVINotifyUI@DuiLib@@@8 0000000140027418     MainWnd.obj
 0003:00001440       ??_R0?AVIMessageFilterUI@DuiLib@@@8 0000000140027440     MainWnd.obj
 0003:00001470       ??_R0?AVIDialogBuilderCallback@DuiLib@@@8 0000000140027470     MainWnd.obj
 0003:000014a8       ??_R0?AV__non_rtti_object@std@@@8 00000001400274a8     libvcruntime:rtti.obj
 0003:000014d8       ??_R0?AVbad_typeid@std@@@8 00000001400274d8     libvcruntime:rtti.obj
 0003:00001500       ??_R0?AVbad_cast@std@@@8   0000000140027500     libvcruntime:rtti.obj
 0003:00001530       __scrt_current_native_startup_state 0000000140027530     LIBCMT:utility.obj
 0003:00001538       __scrt_native_startup_lock 0000000140027538     LIBCMT:utility.obj
 0003:00001580       ?__type_info_root_node@@3U__type_info_node@@A 0000000140027580     LIBCMT:tncleanup.obj
 0003:00001590       ?_OptionsStorage@?1??__local_stdio_scanf_options@@9@4_KA 0000000140027590     LIBCMT:default_local_stdio_options.obj
 0003:00001598       __scrt_debugger_hook_flag  0000000140027598     LIBCMT:utility_desktop.obj
 0003:0000159c       __favor                    000000014002759c     LIBCMT:cpu_disp.obj
 0003:000015a0       ?__WinRTOutOfMemoryExceptionCallback@@3P6APEAXXZEA 00000001400275a0     libvcruntime:ehhelpers.obj
 0003:00001640       __pPurecall                0000000140027640     libvcruntime:purevirt_data.obj
 0003:000016b8       ?pArgList@UnDecorator@@0PEAVReplicator@@EA 00000001400276b8     libvcruntime:undname.obj
 0003:000016c0       ?pZNameList@UnDecorator@@0PEAVReplicator@@EA 00000001400276c0     libvcruntime:undname.obj
 0003:000016c8       ?pTemplateArgList@UnDecorator@@0PEAVReplicator@@EA 00000001400276c8     libvcruntime:undname.obj
 0003:000016d0       ?gName@UnDecorator@@0PEBDEB 00000001400276d0     libvcruntime:undname.obj
 0003:000016d8       ?name@UnDecorator@@0PEBDEB 00000001400276d8     libvcruntime:undname.obj
 0003:000016e0       ?disableFlags@UnDecorator@@0KA 00000001400276e0     libvcruntime:undname.obj
 0003:000016e4       ?fExplicitTemplateParams@UnDecorator@@0_NA 00000001400276e4     libvcruntime:undname.obj
 0003:000016e5       ?fGetTemplateArgumentList@UnDecorator@@0_NA 00000001400276e5     libvcruntime:undname.obj
 0003:000016e8       ?m_pGetParameter@UnDecorator@@0P6APEADJ@ZEA 00000001400276e8     libvcruntime:undname.obj
 0003:000016f0       ?m_CHPENameOffset@UnDecorator@@0KA 00000001400276f0     libvcruntime:undname.obj
 0003:000016f4       ?m_recursionLevel@UnDecorator@@0KA 00000001400276f4     libvcruntime:undname.obj
 0003:00001950       _environ_table             0000000140027950     libucrt:environment_initialization.obj
 0003:00001958       _wenviron_table            0000000140027958     libucrt:environment_initialization.obj
 0003:00001960       __dcrt_initial_wide_environment 0000000140027960     libucrt:environment_initialization.obj
 0003:00001968       __dcrt_initial_narrow_environment 0000000140027968     libucrt:environment_initialization.obj
 0003:00001980       ?c_exit_complete@?1???R<lambda_6e4b09c48022b2350581041d5f6b0c4c>@@QEBA@XZ@4_NA 0000000140027980     libucrt:exit.obj
 0003:00001984       __acrt_locale_changed_data 0000000140027984     libucrt:wsetlocale.obj
 0003:0000198c       _commode                   000000014002798c     libucrt:ncommode.obj
 0003:00001990       __acrt_atexit_table        0000000140027990     libucrt:onexit.obj
 0003:000019a8       __acrt_at_quick_exit_table 00000001400279a8     libucrt:onexit.obj
 0003:000019d0       _nstream                   00000001400279d0     libucrt:_file.obj
 0003:000019d8       __piob                     00000001400279d8     libucrt:_file.obj
 0003:000019e8       __acrt_stdout_buffer       00000001400279e8     libucrt:_sftbuf.obj
 0003:000019f0       __acrt_stderr_buffer       00000001400279f0     libucrt:_sftbuf.obj
 0003:000019f8       __acrt_current_locale_data 00000001400279f8     libucrt:nlsdata.obj
 0003:00001a00       __pioinfo                  0000000140027a00     libucrt:ioinit.obj
 0003:00001e00       _nhandle                   0000000140027e00     libucrt:ioinit.obj
 0003:00002048       _mbctype                   0000000140028048     libucrt:mbctype.obj
 0003:00002050       _mbcasemap                 0000000140028050     libucrt:mbctype.obj
 0003:00002058       __acrt_current_multibyte_data 0000000140028058     libucrt:mbctype.obj
 0003:00002068       _wpgmptr                   0000000140028068     libucrt:argv_data.obj
 0003:00002070       __argc                     0000000140028070     libucrt:argv_data.obj
 0003:00002078       __argv                     0000000140028078     libucrt:argv_data.obj
 0003:00002080       __wargv                    0000000140028080     libucrt:argv_data.obj
 0003:00002088       _acmdln                    0000000140028088     libucrt:argv_data.obj
 0003:00002090       _wcmdln                    0000000140028090     libucrt:argv_data.obj
 0003:00002098       _fmode                     0000000140028098     libucrt:txtmode.obj
 0003:00002250       __acrt_lconv_static_null   0000000140028250     libucrt:localeconv.obj
 0003:00002254       __acrt_lconv_static_W_null 0000000140028254     libucrt:localeconv.obj
 0003:00002258       __acrt_heap                0000000140028258     libucrt:heap_handle.obj
 0003:00002288       __fma3_is_available        0000000140028288     libucrt:fma3_available.obj
 0003:0000228c       __use_fma3_lib             000000014002828c     libucrt:fma3_available.obj
 0003:00002800       ?_OptionsStorage@?1??__local_stdio_printf_options@@9@4_KA 0000000140028800     MainWnd.obj
 0003:00002808       ?g_pMainWnd@CMainWnd@@0PEAV1@EA 0000000140028808     MainWnd.obj
 0003:00002810       __@@_PchSym_@00@UKlrKouKrvKltKopKqzUxguUKlqKrzKrtKluKqzKqyUhxcUwfrPhsvooxlwvcUcGEUivovzhvUhgwzucOlyq@4B2008FD98C1DD4 0000000140028810     stdafx.obj
 0003:00002814       __scrt_ucrt_dll_is_in_use  0000000140028814     <common>
 0003:00002818       __dyn_tls_dtor_callback    0000000140028818     <common>
 0003:00002820       __dyn_tls_init_callback    0000000140028820     <common>

 entry point at        0001:00002da4

 Static symbols

 0000:fffd0000       .debug$S                   0000000140000000     kernel32:KERNEL32.dll
 0000:fffd0000       .debug$S                   0000000140000000     kernel32:KERNEL32.dll
 0000:fffd0000       .debug$S                   0000000140000000     kernel32:KERNEL32.dll
 0000:fffd0000       .debug$S                   0000000140000000     kernel32:KERNEL32.dll
 0000:fffd0000       .debug$S                   0000000140000000     kernel32:KERNEL32.dll
 0000:fffd0000       .debug$S                   0000000140000000     kernel32:KERNEL32.dll
 0000:fffd0000       .debug$S                   0000000140000000     kernel32:KERNEL32.dll
 0000:fffd0000       .debug$S                   0000000140000000     kernel32:KERNEL32.dll
 0000:fffd0000       .debug$S                   0000000140000000     kernel32:KERNEL32.dll
 0000:fffd0000       .debug$S                   0000000140000000     kernel32:KERNEL32.dll
 0000:fffd0000       .debug$S                   0000000140000000     kernel32:KERNEL32.dll
 0000:fffd0000       .debug$S                   0000000140000000     kernel32:KERNEL32.dll
 0000:fffd0000       .debug$S                   0000000140000000     kernel32:KERNEL32.dll
 0000:fffd0000       .debug$S                   0000000140000000     kernel32:KERNEL32.dll
 0000:fffd0000       .debug$S                   0000000140000000     kernel32:KERNEL32.dll
 0000:fffd0000       .debug$S                   0000000140000000     kernel32:KERNEL32.dll
 0000:fffd0000       .debug$S                   0000000140000000     kernel32:KERNEL32.dll
 0000:fffd0000       .debug$S                   0000000140000000     kernel32:KERNEL32.dll
 0000:fffd0000       .debug$S                   0000000140000000     kernel32:KERNEL32.dll
 0000:fffd0000       .debug$S                   0000000140000000     DuiLib:DuiLib.dll
 0000:fffd0000       .debug$S                   0000000140000000     kernel32:KERNEL32.dll
 0000:fffd0000       .debug$S                   0000000140000000     DuiLib:DuiLib.dll
 0000:fffd0000       .debug$S                   0000000140000000     kernel32:KERNEL32.dll
 0000:fffd0000       .debug$S                   0000000140000000     kernel32:KERNEL32.dll
 0000:fffd0000       .debug$S                   0000000140000000     kernel32:KERNEL32.dll
 0000:fffd0000       .debug$S                   0000000140000000     DuiLib:DuiLib.dll
 0000:fffd0000       .debug$S                   0000000140000000     kernel32:KERNEL32.dll
 0000:fffd0000       .debug$S                   0000000140000000     DuiLib:DuiLib.dll
 0000:fffd0000       .debug$S                   0000000140000000     kernel32:KERNEL32.dll
 0000:fffd0000       .debug$S                   0000000140000000     kernel32:KERNEL32.dll
 0000:fffd0000       .debug$S                   0000000140000000     kernel32:KERNEL32.dll
 0000:fffd0000       .debug$S                   0000000140000000     kernel32:KERNEL32.dll
 0000:fffd0000       .debug$S                   0000000140000000     kernel32:KERNEL32.dll
 0000:fffd0000       .debug$S                   0000000140000000     kernel32:KERNEL32.dll
 0000:fffd0000       .debug$S                   0000000140000000     DuiLib:DuiLib.dll
 0000:fffd0000       .debug$S                   0000000140000000     DuiLib:DuiLib.dll
 0000:fffd0000       .debug$S                   0000000140000000     kernel32:KERNEL32.dll
 0000:fffd0000       .debug$S                   0000000140000000     kernel32:KERNEL32.dll
 0000:fffd0000       .debug$S                   0000000140000000     kernel32:KERNEL32.dll
 0000:fffd0000       .debug$S                   0000000140000000     DuiLib:DuiLib.dll
 0000:fffd0000       .debug$S                   0000000140000000     kernel32:KERNEL32.dll
 0000:fffd0000       .debug$S                   0000000140000000     DuiLib:DuiLib.dll
 0000:fffd0000       .debug$S                   0000000140000000     kernel32:KERNEL32.dll
 0000:fffd0000       .debug$S                   0000000140000000     DuiLib:DuiLib.dll
 0000:fffd0000       .debug$S                   0000000140000000     kernel32:KERNEL32.dll
 0000:fffd0000       .debug$S                   0000000140000000     kernel32:KERNEL32.dll
 0000:fffd0000       .debug$S                   0000000140000000     user32:USER32.dll
 0000:fffd0000       .debug$S                   0000000140000000     kernel32:KERNEL32.dll
 0000:fffd0000       .debug$S                   0000000140000000     user32:USER32.dll
 0000:fffd0000       .debug$S                   0000000140000000     DuiLib:DuiLib.dll
 0000:fffd0000       .debug$S                   0000000140000000     DuiLib:DuiLib.dll
 0000:fffd0000       .debug$S                   0000000140000000     DuiLib:DuiLib.dll
 0000:fffd0000       .debug$S                   0000000140000000     DuiLib:DuiLib.dll
 0000:fffd0000       .debug$S                   0000000140000000     user32:USER32.dll
 0000:fffd0000       .debug$S                   0000000140000000     kernel32:KERNEL32.dll
 0000:fffd0000       .debug$S                   0000000140000000     user32:USER32.dll
 0000:fffd0000       .debug$S                   0000000140000000     DuiLib:DuiLib.dll
 0000:fffd0000       .debug$S                   0000000140000000     user32:USER32.dll
 0000:fffd0000       .debug$S                   0000000140000000     DuiLib:DuiLib.dll
 0000:fffd0000       .debug$S                   0000000140000000     shell32:SHELL32.dll
 0000:fffd0000       .debug$S                   0000000140000000     kernel32:KERNEL32.dll
 0000:fffd0000       .debug$S                   0000000140000000     DuiLib:DuiLib.dll
 0000:fffd0000       .debug$S                   0000000140000000     kernel32:KERNEL32.dll
 0000:fffd0000       .debug$S                   0000000140000000     DuiLib:DuiLib.dll
 0000:fffd0000       .debug$S                   0000000140000000     shell32:SHELL32.dll
 0000:fffd0000       .debug$S                   0000000140000000     DuiLib:DuiLib.dll
 0000:fffd0000       .debug$S                   0000000140000000     kernel32:KERNEL32.dll
 0000:fffd0000       .debug$S                   0000000140000000     kernel32:KERNEL32.dll
 0000:fffd0000       .debug$S                   0000000140000000     DuiLib:DuiLib.dll
 0000:fffd0000       .debug$S                   0000000140000000     shell32:SHELL32.dll
 0000:fffd0000       .debug$S                   0000000140000000     kernel32:KERNEL32.dll
 0000:fffd0000       .debug$S                   0000000140000000     kernel32:KERNEL32.dll
 0000:fffd0000       .debug$S                   0000000140000000     kernel32:KERNEL32.dll
 0000:fffd0000       .debug$S                   0000000140000000     kernel32:KERNEL32.dll
 0000:fffd0000       .debug$S                   0000000140000000     shell32:SHELL32.dll
 0000:fffd0000       .debug$S                   0000000140000000     kernel32:KERNEL32.dll
 0000:fffd0000       .debug$S                   0000000140000000     ole32:ole32.dll
 0000:fffd0000       .debug$S                   0000000140000000     kernel32:KERNEL32.dll
 0000:fffd0000       .debug$S                   0000000140000000     kernel32:KERNEL32.dll
 0000:fffd0000       .debug$S                   0000000140000000     kernel32:KERNEL32.dll
 0000:fffd0000       .debug$S                   0000000140000000     kernel32:KERNEL32.dll
 0000:fffd0000       .debug$S                   0000000140000000     ole32:ole32.dll
 0000:fffd0000       .debug$S                   0000000140000000     kernel32:KERNEL32.dll
 0000:fffd0000       .debug$S                   0000000140000000     ole32:ole32.dll
 0002:fffe8000       .idata$6                   0000000140000000     Ws2_32:WS2_32.dll
 0000:fffd0000       .debug$S                   0000000140000000     Ws2_32:WS2_32.dll
 0000:fffd0000       .debug$S                   0000000140000000     Ws2_32:WS2_32.dll
 0000:fffd0000       .debug$S                   0000000140000000     Ws2_32:WS2_32.dll
 0000:fffd0000       .debug$S                   0000000140000000     ole32:ole32.dll
 0000:fffd0000       .debug$S                   0000000140000000     Ws2_32:WS2_32.dll
 0000:fffd0000       .debug$S                   0000000140000000     Ws2_32:WS2_32.dll
 0000:fffd0000       .debug$S                   0000000140000000     Ws2_32:WS2_32.dll
 0000:fffd0000       .debug$S                   0000000140000000     Shlwapi:SHLWAPI.dll
 0000:fffd0000       .debug$S                   0000000140000000     DuiLib:DuiLib.dll
 0000:fffd0000       .debug$S                   0000000140000000     kernel32:KERNEL32.dll
 0000:fffd0000       .debug$S                   0000000140000000     kernel32:KERNEL32.dll
 0000:fffd0000       .debug$S                   0000000140000000     kernel32:KERNEL32.dll
 0000:fffd0000       .debug$S                   0000000140000000     kernel32:KERNEL32.dll
 0000:fffd0000       .debug$S                   0000000140000000     DuiLib:DuiLib.dll
 0000:fffd0000       .debug$S                   0000000140000000     kernel32:KERNEL32.dll
 0000:fffd0000       .debug$S                   0000000140000000     DuiLib:DuiLib.dll
 0000:fffd0000       .debug$S                   0000000140000000     DuiLib:DuiLib.dll
 0000:fffd0000       .debug$S                   0000000140000000     DuiLib:DuiLib.dll
 0000:fffd0000       .debug$S                   0000000140000000     DuiLib:DuiLib.dll
 0000:fffd0000       .debug$S                   0000000140000000     DuiLib:DuiLib.dll
 0000:fffd0000       .debug$S                   0000000140000000     DuiLib:DuiLib.dll
 0000:fffd0000       .debug$S                   0000000140000000     DuiLib:DuiLib.dll
 0000:fffd0000       .debug$S                   0000000140000000     DuiLib:DuiLib.dll
 0000:fffd0000       .debug$S                   0000000140000000     DuiLib:DuiLib.dll
 0000:fffd0000       .debug$S                   0000000140000000     DuiLib:DuiLib.dll
 0000:fffd0000       .debug$S                   0000000140000000     DuiLib:DuiLib.dll
 0000:fffd0000       .debug$S                   0000000140000000     DuiLib:DuiLib.dll
 0000:fffd0000       .debug$S                   0000000140000000     DuiLib:DuiLib.dll
 0000:fffd0000       .debug$S                   0000000140000000     DuiLib:DuiLib.dll
 0000:fffd0000       .debug$S                   0000000140000000     DuiLib:DuiLib.dll
 0000:fffd0000       .debug$S                   0000000140000000     DuiLib:DuiLib.dll
 0000:fffd0000       .debug$S                   0000000140000000     DuiLib:DuiLib.dll
 0000:fffd0000       .debug$S                   0000000140000000     DuiLib:DuiLib.dll
 0000:fffd0000       .debug$S                   0000000140000000     DuiLib:DuiLib.dll
 0000:fffd0000       .debug$S                   0000000140000000     DuiLib:DuiLib.dll
 0000:fffd0000       .debug$S                   0000000140000000     DuiLib:DuiLib.dll
 0000:fffd0000       .debug$S                   0000000140000000     DuiLib:DuiLib.dll
 0000:fffd0000       .debug$S                   0000000140000000     DuiLib:DuiLib.dll
 0000:fffd0000       .debug$S                   0000000140000000     DuiLib:DuiLib.dll
 0000:fffd0000       .debug$S                   0000000140000000     DuiLib:DuiLib.dll
 0000:fffd0000       .debug$S                   0000000140000000     DuiLib:DuiLib.dll
 0000:fffd0000       .debug$S                   0000000140000000     DuiLib:DuiLib.dll
 0000:fffd0000       .debug$S                   0000000140000000     DuiLib:DuiLib.dll
 0000:fffd0000       .debug$S                   0000000140000000     DuiLib:DuiLib.dll
 0000:fffd0000       .debug$S                   0000000140000000     DuiLib:DuiLib.dll
 0000:fffd0000       .debug$S                   0000000140000000     DuiLib:DuiLib.dll
 0000:fffd0000       .debug$S                   0000000140000000     DuiLib:DuiLib.dll
 0000:fffd0000       .debug$S                   0000000140000000     DuiLib:DuiLib.dll
 0000:fffd0000       .debug$S                   0000000140000000     DuiLib:DuiLib.dll
 0000:fffd0000       .debug$S                   0000000140000000     DuiLib:DuiLib.dll
 0000:fffd0000       .debug$S                   0000000140000000     DuiLib:DuiLib.dll
 0000:fffd0000       .debug$S                   0000000140000000     kernel32:KERNEL32.dll
 0000:fffd0000       .debug$S                   0000000140000000     kernel32:KERNEL32.dll
 0000:fffd0000       .debug$S                   0000000140000000     kernel32:KERNEL32.dll
 0000:fffd0000       .debug$S                   0000000140000000     DuiLib:DuiLib.dll
 0000:fffd0000       .debug$S                   0000000140000000     kernel32:KERNEL32.dll
 0000:fffd0000       .debug$S                   0000000140000000     kernel32:KERNEL32.dll
 0000:fffd0000       .debug$S                   0000000140000000     kernel32:KERNEL32.dll
 0000:fffd0000       .debug$S                   0000000140000000     kernel32:KERNEL32.dll
 0000:fffd0000       .debug$S                   0000000140000000     DuiLib:DuiLib.dll
 0000:fffd0000       .debug$S                   0000000140000000     kernel32:KERNEL32.dll
 0000:fffd0000       .debug$S                   0000000140000000     kernel32:KERNEL32.dll
 0000:fffd0000       .debug$S                   0000000140000000     kernel32:KERNEL32.dll
 0000:fffd0000       .debug$S                   0000000140000000     kernel32:KERNEL32.dll
 0000:fffd0000       .debug$S                   0000000140000000     DuiLib:DuiLib.dll
 0000:fffd0000       .debug$S                   0000000140000000     kernel32:KERNEL32.dll
 0000:fffd0000       .debug$S                   0000000140000000     DuiLib:DuiLib.dll
 0000:fffd0000       .debug$S                   0000000140000000     kernel32:KERNEL32.dll
 0000:fffd0000       .debug$S                   0000000140000000     DuiLib:DuiLib.dll
 0000:fffd0000       .debug$S                   0000000140000000     kernel32:KERNEL32.dll
 0000:fffd0000       .debug$S                   0000000140000000     DuiLib:DuiLib.dll
 0000:fffd0000       .debug$S                   0000000140000000     kernel32:KERNEL32.dll
 0000:fffd0000       .debug$S                   0000000140000000     DuiLib:DuiLib.dll
 0000:fffd0000       .debug$S                   0000000140000000     kernel32:KERNEL32.dll
 0000:fffd0000       .debug$S                   0000000140000000     kernel32:KERNEL32.dll
 0000:fffd0000       .debug$S                   0000000140000000     kernel32:KERNEL32.dll
 0000:fffd0000       .debug$S                   0000000140000000     kernel32:KERNEL32.dll
 0000:fffd0000       .debug$S                   0000000140000000     kernel32:KERNEL32.dll
 0000:fffd0000       .debug$S                   0000000140000000     kernel32:KERNEL32.dll
 0000:fffd0000       .debug$S                   0000000140000000     kernel32:KERNEL32.dll
 0000:fffd0000       .debug$S                   0000000140000000     kernel32:KERNEL32.dll
 0000:fffd0000       .debug$S                   0000000140000000     kernel32:KERNEL32.dll
 0000:fffd0000       .debug$S                   0000000140000000     kernel32:KERNEL32.dll
 0000:fffd0000       .debug$S                   0000000140000000     kernel32:KERNEL32.dll
 0000:fffd0000       .debug$S                   0000000140000000     kernel32:KERNEL32.dll
 0000:fffd0000       .debug$S                   0000000140000000     kernel32:KERNEL32.dll
 0000:fffd0000       .debug$S                   0000000140000000     kernel32:KERNEL32.dll
 0000:fffd0000       .debug$S                   0000000140000000     kernel32:KERNEL32.dll
 0000:fffd0000       .debug$S                   0000000140000000     kernel32:KERNEL32.dll
 0000:fffd0000       .debug$S                   0000000140000000     kernel32:KERNEL32.dll
 0000:fffd0000       .debug$S                   0000000140000000     kernel32:KERNEL32.dll
 0000:fffd0000       .debug$S                   0000000140000000     kernel32:KERNEL32.dll
 0000:fffd0000       .debug$S                   0000000140000000     kernel32:KERNEL32.dll
 0000:fffd0000       .debug$S                   0000000140000000     kernel32:KERNEL32.dll
 0000:fffd0000       .debug$S                   0000000140000000     kernel32:KERNEL32.dll
 0000:fffd0000       .debug$S                   0000000140000000     kernel32:KERNEL32.dll
 0000:fffd0000       .debug$S                   0000000140000000     kernel32:KERNEL32.dll
 0000:fffd0000       .debug$S                   0000000140000000     kernel32:KERNEL32.dll
 0000:fffd0000       .debug$S                   0000000140000000     kernel32:KERNEL32.dll
 0000:fffd0000       .debug$S                   0000000140000000     kernel32:KERNEL32.dll
 0000:fffd0000       .debug$S                   0000000140000000     kernel32:KERNEL32.dll
 0000:fffd0000       .debug$S                   0000000140000000     kernel32:KERNEL32.dll
 0000:fffd0000       .debug$S                   0000000140000000     kernel32:KERNEL32.dll
 0001:00002b4c       ?pre_c_initialization@@YAHXZ 0000000140003b4c f   LIBCMT:exe_wwinmain.obj
 0001:00002c04       ?post_pgo_initialization@@YAHXZ 0000000140003c04 f   LIBCMT:exe_wwinmain.obj
 0001:00002c14       ?pre_cpp_initialization@@YAXXZ 0000000140003c14 f   LIBCMT:exe_wwinmain.obj
 0001:00002c30       ?__scrt_common_main_seh@@YAHXZ 0000000140003c30 f   LIBCMT:exe_wwinmain.obj
 0001:000032e8       initialize_global_state_isolation 00000001400042e8 f   libucrt:initialization.obj
 0001:000032e8       uninitialize_global_state_isolation 00000001400042e8 f   libucrt:initialization.obj
 0001:000032e8       uninitialize_c             00000001400042e8 f   libucrt:initialization.obj
 0001:000032e8       initialize_environment     00000001400042e8 f   libucrt:initialization.obj
 0001:000032e8       report_memory_leaks        00000001400042e8 f   libucrt:initialization.obj
 0001:000042e0       $$000000                   00000001400052e0     libvcruntime:memset.obj
 0001:000043dc       MsetTab                    00000001400053dc     libvcruntime:memset.obj
 0001:0000477c       ??$BuildCatchObjectHelperInternal@V__FrameHandler3@@@@YAHPEAUEHExceptionRecord@@PEAXPEBU_s_HandlerType@@PEBU_s_CatchableType@@@Z 000000014000577c f   libvcruntime:frame.obj
 0001:0000497c       ??$BuildCatchObjectInternal@V__FrameHandler3@@@@YAXPEAUEHExceptionRecord@@PEAXPEBU_s_HandlerType@@PEBU_s_CatchableType@@@Z 000000014000597c f   libvcruntime:frame.obj
 0001:00004a3c       ??$CatchIt@V__FrameHandler3@@@@YAXPEAUEHExceptionRecord@@PEA_KPEAU_CONTEXT@@PEAU_xDISPATCHER_CONTEXT@@PEBU_s_FuncInfo@@PEBU_s_HandlerType@@PEBU_s_CatchableType@@PEBU_s_TryBlockMapEntry@@H1EE@Z 0000000140005a3c f   libvcruntime:frame.obj
 0001:00004b0c       ??$FindHandler@V__FrameHandler3@@@@YAXPEAUEHExceptionRecord@@PEA_KPEAU_CONTEXT@@PEAU_xDISPATCHER_CONTEXT@@PEBU_s_FuncInfo@@EH1@Z 0000000140005b0c f   libvcruntime:frame.obj
 0001:00004f70       ??$FindHandlerForForeignException@V__FrameHandler3@@@@YAXPEAUEHExceptionRecord@@PEA_KPEAU_CONTEXT@@PEAU_xDISPATCHER_CONTEXT@@PEBU_s_FuncInfo@@HH1@Z 0000000140005f70 f   libvcruntime:frame.obj
 0001:00005778       ?ExFilterRethrow@@YAHPEAU_EXCEPTION_POINTERS@@PEAUEHExceptionRecord@@PEAH@Z 0000000140006778 f   libvcruntime:frame.obj
 0001:00005a2c       ?IsInExceptionSpec@@YAEPEAUEHExceptionRecord@@PEBU_s_ESTypeList@@@Z 0000000140006a2c f   libvcruntime:frame.obj
 0001:00005b04       ?Is_bad_exception_allowed@@YAEPEBU_s_ESTypeList@@@Z 0000000140006b04 f   libvcruntime:frame.obj
 0001:00005bd0       $$000000                   0000000140006bd0     libvcruntime:notify.obj
 0001:00005ccc       ?try_get_function@@YAPEAXW4function_id@?A0xbfd18cd1@@QEBDQEBW4module_id@2@2@Z 0000000140006ccc f   libvcruntime:winapi_downlevel.obj
 0001:000060b0       $$000000                   00000001400070b0     libvcruntime:handlers.obj
 0001:00006160       $$000000                   0000000140007160     libvcruntime:memcpy.obj
 0001:0000621b       MoveSmall                  000000014000721b     libvcruntime:memcpy.obj
 0001:00006608       ??$common_vsprintf@Vformat_validation_base@__crt_stdio_output@@D@@YAH_KQEAD0QEBDQEAU__crt_locale_pointers@@1@Z 0000000140007608 f   libucrt:output.obj
 0001:000067d4       ??$common_vsprintf@Vformat_validation_base@__crt_stdio_output@@_W@@YAH_KQEA_W0QEB_WQEAU__crt_locale_pointers@@QEAD@Z 00000001400077d4 f   libucrt:output.obj
 0001:0000900c       ??$common_xtox@K_W@@YAHKQEA_W_KI_N@Z 000000014000a00c f   libucrt:xtoa.obj
 0001:000090e0       ??$common_xtox_s@K_W@@YAHKQEA_W_KI_N@Z 000000014000a0e0 f   libucrt:xtoa.obj
 0001:0000a034       ??$parse_command_line@_W@@YAXPEA_WPEAPEA_W0PEA_K2@Z 000000014000b034 f   libucrt:argv_parsing.obj
 0001:0000a3bc       ??$common_initialize_environment_nolock@_W@@YAHXZ 000000014000b3bc f   libucrt:environment_initialization.obj
 0001:0000a424       ??$create_environment@_W@@YAQEAPEA_WQEA_W@Z 000000014000b424 f   libucrt:environment_initialization.obj
 0001:0000a538       ??$free_environment@_W@@YAXQEAPEA_W@Z 000000014000b538 f   libucrt:environment_initialization.obj
 0001:0000a538       ??$free_environment@D@@YAXQEAPEAD@Z 000000014000b538 f   libucrt:environment_initialization.obj
 0001:0000a57c       ??$uninitialize_environment_internal@D@@YAXAEAPEAPEAD@Z 000000014000b57c f   libucrt:environment_initialization.obj
 0001:0000a598       ??$uninitialize_environment_internal@_W@@YAXAEAPEAPEA_W@Z 000000014000b598 f   libucrt:environment_initialization.obj
 0001:0000a6ec       ??$?RV<lambda_d80eeec6fff315bfe5c115232f3240e3>@@AEAV<lambda_6e4b09c48022b2350581041d5f6b0c4c>@@V<lambda_2358e3775559c9db80273638284d5e45>@@@?$__crt_seh_guarded_call@X@@QEAAX$$QEAV<lambda_d80eeec6fff315bfe5c115232f3240e3>@@AEAV<lambda_6e4b09c48022b2350581041d5f6b0c4c>@@$$QEAV<lambda_2358e3775559c9db80273638284d5e45>@@@Z 000000014000b6ec f   libucrt:exit.obj
 0001:0000a724       ??R<lambda_6e4b09c48022b2350581041d5f6b0c4c>@@QEBA@XZ 000000014000b724 f   libucrt:exit.obj
 0001:0000a7e8       ?atexit_exception_filter@@YAHK@Z 000000014000b7e8 f   libucrt:exit.obj
 0001:0000a7f4       ?common_exit@@YAXHW4_crt_exit_cleanup_mode@@W4_crt_exit_return_mode@@@Z 000000014000b7f4 f   libucrt:exit.obj
 0001:0000a8b0       ?exit_or_terminate_process@@YAXI@Z 000000014000b8b0 f   libucrt:exit.obj
 0001:0000a8fc       ?try_cor_exit_process@@YAXI@Z 000000014000b8fc f   libucrt:exit.obj
 0001:0000aa14       ??$?RV<lambda_410d79af7f07d98d83a3f525b3859a53>@@AEAV<lambda_3e16ef9562a7dcce91392c22ab16ea36>@@V<lambda_38119f0e861e05405d8a144b9b982f0a>@@@?$__crt_seh_guarded_call@X@@QEAAX$$QEAV<lambda_410d79af7f07d98d83a3f525b3859a53>@@AEAV<lambda_3e16ef9562a7dcce91392c22ab16ea36>@@$$QEAV<lambda_38119f0e861e05405d8a144b9b982f0a>@@@Z 000000014000ba14 f   libucrt:wsetlocale.obj
 0001:0000ab7c       ??$?RV<lambda_638799b9deba96c50f710eeac98168cd>@@AEAV<lambda_22ebabd17bc4fa466a2aca6d8deb888d>@@V<lambda_a6f7d7db0129f75315ebf26d50c089f1>@@@?$__crt_seh_guarded_call@H@@QEAAH$$QEAV<lambda_638799b9deba96c50f710eeac98168cd>@@AEAV<lambda_22ebabd17bc4fa466a2aca6d8deb888d>@@$$QEAV<lambda_a6f7d7db0129f75315ebf26d50c089f1>@@@Z 000000014000bb7c f   libucrt:onexit.obj
 0001:0000abb8       ??$?RV<lambda_7777bce6b2f8c936911f934f8298dc43>@@AEAV<lambda_f03950bc5685219e0bcd2087efbe011e>@@V<lambda_3883c3dff614d5e0c5f61bb1ac94921c>@@@?$__crt_seh_guarded_call@H@@QEAAH$$QEAV<lambda_7777bce6b2f8c936911f934f8298dc43>@@AEAV<lambda_f03950bc5685219e0bcd2087efbe011e>@@$$QEAV<lambda_3883c3dff614d5e0c5f61bb1ac94921c>@@@Z 000000014000bbb8 f   libucrt:onexit.obj
 0001:0000abf4       ??R<lambda_22ebabd17bc4fa466a2aca6d8deb888d>@@QEBAHXZ 000000014000bbf4 f   libucrt:onexit.obj
 0001:0000ada4       ??R<lambda_f03950bc5685219e0bcd2087efbe011e>@@QEBAHXZ 000000014000bda4 f   libucrt:onexit.obj
 0001:0000af78       initialize_global_variables 000000014000bf78 f   libucrt:initialization.obj
 0001:0000af8c       initialize_c               000000014000bf8c f   libucrt:initialization.obj
 0001:0000afb0       uninitialize_environment   000000014000bfb0 f   libucrt:initialization.obj
 0001:0000afc0       initialize_pointers        000000014000bfc0 f   libucrt:initialization.obj
 0001:0000b000       uninitialize_vcruntime     000000014000c000 f   libucrt:initialization.obj
 0001:0000b008       uninitialize_allocated_memory 000000014000c008 f   libucrt:initialization.obj
 0001:0000b048       uninitialize_allocated_io_buffers 000000014000c048 f   libucrt:initialization.obj
 0001:0000b110       ?_wcsupr_s_l_stat@@YAHQEA_W_KQEAU__crt_locale_pointers@@@Z 000000014000c110 f   libucrt:wcsupr.obj
 0001:0000b450       $$000000                   000000014000c450     libucrt:strncmp.obj
 0001:0000bf8c       ??$?RV<lambda_0ae27a3a962d80f24befdcbee591983d>@@AEAV<lambda_8d0ee55de4b1038c4002e0adecdf1839>@@V<lambda_dc504788e8f1664fe9b84e20bfb512f2>@@@?$__crt_seh_guarded_call@X@@QEAAX$$QEAV<lambda_0ae27a3a962d80f24befdcbee591983d>@@AEAV<lambda_8d0ee55de4b1038c4002e0adecdf1839>@@$$QEAV<lambda_dc504788e8f1664fe9b84e20bfb512f2>@@@Z 000000014000cf8c f   libucrt:per_thread_data.obj
 0001:0000bfcc       ??$?RV<lambda_2d41944a1d46af3157314b8a01080d33>@@AEAV<lambda_8f455de75cd7d7f24b4096f044d8b9e6>@@V<lambda_aa500f224e6afead328df44964fe2772>@@@?$__crt_seh_guarded_call@X@@QEAAX$$QEAV<lambda_2d41944a1d46af3157314b8a01080d33>@@AEAV<lambda_8f455de75cd7d7f24b4096f044d8b9e6>@@$$QEAV<lambda_aa500f224e6afead328df44964fe2772>@@@Z 000000014000cfcc f   libucrt:per_thread_data.obj
 0001:0000c00c       ??$?RV<lambda_aa87e3671a710a21b5dc78c0bdf72e11>@@AEAV<lambda_92619d2358a28f41a33ba319515a20b9>@@V<lambda_6992ecaafeb10aed2b74cb1fae11a551>@@@?$__crt_seh_guarded_call@X@@QEAAX$$QEAV<lambda_aa87e3671a710a21b5dc78c0bdf72e11>@@AEAV<lambda_92619d2358a28f41a33ba319515a20b9>@@$$QEAV<lambda_6992ecaafeb10aed2b74cb1fae11a551>@@@Z 000000014000d00c f   libucrt:per_thread_data.obj
 0001:0000c054       ??$?RV<lambda_f2e299630e499de9f9a165e60fcd3db5>@@AEAV<lambda_2ae9d31cdba2644fcbeaf08da7c24588>@@V<lambda_40d01ff24d0e7b3814fdbdcee8eab3c7>@@@?$__crt_seh_guarded_call@X@@QEAAX$$QEAV<lambda_f2e299630e499de9f9a165e60fcd3db5>@@AEAV<lambda_2ae9d31cdba2644fcbeaf08da7c24588>@@$$QEAV<lambda_40d01ff24d0e7b3814fdbdcee8eab3c7>@@@Z 000000014000d054 f   libucrt:per_thread_data.obj
 0001:0000c0b4       ?construct_ptd_array@@YAXQEAU__acrt_ptd@@@Z 000000014000d0b4 f   libucrt:per_thread_data.obj
 0001:0000c184       ?destroy_fls@@YAXPEAX@Z    000000014000d184 f   libucrt:per_thread_data.obj
 0001:0000c1a4       ?destroy_ptd_array@@YAXQEAU__acrt_ptd@@@Z 000000014000d1a4 f   libucrt:per_thread_data.obj
 0001:0000c29c       ?replace_current_thread_locale_nolock@@YAXQEAU__acrt_ptd@@QEAU__crt_locale_data@@@Z 000000014000d29c f   libucrt:per_thread_data.obj
 0001:0000c614       ?fp_format_a@@YAHQEBNPEAD_KQEAD2H_NIQEAU__crt_locale_pointers@@@Z 000000014000d614 f   libucrt:cvt.obj
 0001:0000c984       ?fp_format_e@@YAHQEBNQEAD_K12H_NIQEAU__crt_locale_pointers@@@Z 000000014000d984 f   libucrt:cvt.obj
 0001:0000ca60       ?fp_format_e_internal@@YAHQEAD_KH_NIQEAU_strflt@@2QEAU__crt_locale_pointers@@@Z 000000014000da60 f   libucrt:cvt.obj
 0001:0000cc34       ?fp_format_f_internal@@YAHQEAD_KHQEAU_strflt@@_NQEAU__crt_locale_pointers@@@Z 000000014000dc34 f   libucrt:cvt.obj
 0001:0000cd78       ?fp_format_g@@YAHQEBNQEAD_K12H_NIQEAU__crt_locale_pointers@@@Z 000000014000dd78 f   libucrt:cvt.obj
 0001:0000d384       ?initialize_inherited_file_handles_nolock@@YAXXZ 000000014000e384 f   libucrt:ioinit.obj
 0001:0000d474       ?initialize_stdio_handles_nolock@@YAXXZ 000000014000e474 f   libucrt:ioinit.obj
 0001:0000d9b8       ?<lambda_invoker_cdecl>@<lambda_861af8918f661c876f88da8747958ced>@@CAHPEBX0@Z 000000014000e9b8 f   libucrt:argv_wildcards.obj
 0001:0000d9cc       ??$common_expand_argv_wildcards@_W@@YAHQEAPEA_WQEAPEAPEA_W@Z 000000014000e9cc f   libucrt:argv_wildcards.obj
 0001:0000dd98       ??$copy_and_add_argument_to_buffer@_W@@YAHQEB_W0_KAEAV?$argument_list@_W@?A0x5f5c8891@@@Z 000000014000ed98 f   libucrt:argv_wildcards.obj
 0001:0000df2c       ??$?RV<lambda_efdfa57d1f175319df784efa44bb7b81>@@AEAV<lambda_5f0a4c1567f8adc6734073e5d1e1b35c>@@V<lambda_2e8a7d3640ea6ccb4c2413664c2db6fd>@@@?$__crt_seh_guarded_call@X@@QEAAX$$QEAV<lambda_efdfa57d1f175319df784efa44bb7b81>@@AEAV<lambda_5f0a4c1567f8adc6734073e5d1e1b35c>@@$$QEAV<lambda_2e8a7d3640ea6ccb4c2413664c2db6fd>@@@Z 000000014000ef2c f   libucrt:mbctype.obj
 0001:0000e0e8       ?getSystemCP@@YAHH@Z       000000014000f0e8 f   libucrt:mbctype.obj
 0001:0000e168       ?setSBCS@@YAXPEAU__crt_multibyte_data@@@Z 000000014000f168 f   libucrt:mbctype.obj
 0001:0000e1f8       ?setSBUpLow@@YAXPEAU__crt_multibyte_data@@@Z 000000014000f1f8 f   libucrt:mbctype.obj
 0001:0000e3dc       ?setmbcp_internal@@YAHH_NQEAU__acrt_ptd@@QEAPEAU__crt_multibyte_data@@@Z 000000014000f3dc f   libucrt:mbctype.obj
 0001:0000e5a0       ?update_thread_multibyte_data_internal@@YAPEAU__crt_multibyte_data@@QEAU__acrt_ptd@@QEAPEAU1@@Z 000000014000f5a0 f   libucrt:mbctype.obj
 0001:0000f024       ?free_crt_array_internal@@YAXQEAPEBX_K@Z 0000000140010024 f   libucrt:inittime.obj
 0001:0000f750       ?try_get_function@@YAPEAXW4function_id@?A0x391cf84c@@QEBDQEBW4module_id@2@2@Z 0000000140010750 f   libucrt:winapi_thunks.obj
 0001:0000fe28       ??$?RV<lambda_450d765d439847d4c735a33c368b5fc0>@@AEAV<lambda_44731a7d0e6d81c3e6aa82d741081786>@@V<lambda_601a2a7da3b7a96e9554ac7215c4b07c>@@@?$__crt_seh_guarded_call@P6AXH@Z@@QEAAP6AXH@Z$$QEAV<lambda_450d765d439847d4c735a33c368b5fc0>@@AEAV<lambda_44731a7d0e6d81c3e6aa82d741081786>@@$$QEAV<lambda_601a2a7da3b7a96e9554ac7215c4b07c>@@@Z 0000000140010e28 f   libucrt:signal.obj
 0001:0001012c       ??$?RV<lambda_842d9ff0dc9ef11c61343bbaebe7f885>@@AEAV<lambda_c5860995281e5c4ce005b3de8f5874ee>@@V<lambda_d90129c13df834fdcbf8d2b88dafcf2d>@@@?$__crt_seh_guarded_call@X@@QEAAX$$QEAV<lambda_842d9ff0dc9ef11c61343bbaebe7f885>@@AEAV<lambda_c5860995281e5c4ce005b3de8f5874ee>@@$$QEAV<lambda_d90129c13df834fdcbf8d2b88dafcf2d>@@@Z 000000014001112c f   libucrt:fflush.obj
 0001:000101c8       ??$?RV<lambda_886d6c58226a84441f68b9f2b8217b83>@@AEAV<lambda_ab61a845afdef5b7c387490eaf3616ee>@@V<lambda_f7f22ab5edc0698d5f6905b0d3f44752>@@@?$__crt_seh_guarded_call@X@@QEAAX$$QEAV<lambda_886d6c58226a84441f68b9f2b8217b83>@@AEAV<lambda_ab61a845afdef5b7c387490eaf3616ee>@@$$QEAV<lambda_f7f22ab5edc0698d5f6905b0d3f44752>@@@Z 00000001400111c8 f   libucrt:fflush.obj
 0001:000102a8       ?common_flush_all@@YAH_N@Z 00000001400112a8 f   libucrt:fflush.obj
 0001:00011e60       memcpy_s                   0000000140012e60 f   libucrt:cfout.obj
 0001:00012400       ?__acrt_LCMapStringA_stat@@YAHPEAU__crt_locale_pointers@@PEB_WKPEBDHPEADHHH@Z 0000000140013400 f   libucrt:lcmapstringa.obj
 0001:000127b0       ?initialize_multibyte@@YAHXZ 00000001400137b0 f   libucrt:multibyte_initializer.obj
 0001:0001297c       ??$?RV<lambda_a37b2b86f63e897a80ea819b0eb08c01>@@AEAV<lambda_38ce7e780aa69e748d6df282ebc68efe>@@V<lambda_99fb1378e971ab6e7edea83e3a7a83a2>@@@?$__crt_seh_guarded_call@H@@QEAAH$$QEAV<lambda_a37b2b86f63e897a80ea819b0eb08c01>@@AEAV<lambda_38ce7e780aa69e748d6df282ebc68efe>@@$$QEAV<lambda_99fb1378e971ab6e7edea83e3a7a83a2>@@@Z 000000014001397c f   libucrt:commit.obj
 0001:00012a9c       ?write_double_translated_ansi_nolock@@YA?AUwrite_result@?A0x17268360@@HQEBDI@Z 0000000140013a9c f   libucrt:write.obj
 0001:00012f6c       ?write_text_ansi_nolock@@YA?AUwrite_result@?A0x17268360@@HQEBDI@Z 0000000140013f6c f   libucrt:write.obj
 0001:00013070       ?write_text_utf16le_nolock@@YA?AUwrite_result@?A0x17268360@@HQEBDI@Z 0000000140014070 f   libucrt:write.obj
 0001:0001318c       ?write_text_utf8_nolock@@YA?AUwrite_result@?A0x17268360@@HQEBDI@Z 000000014001418c f   libucrt:write.obj
 0001:00013a20       $$000000                   0000000140014a20     libucrt:log10.obj
 0001:00013fcc       ??$common_lseek_nolock@_J@@YA_JH_JH@Z 0000000140014fcc f   libucrt:lseek.obj
 0001:00014530       _call_matherr              0000000140015530 f   libucrt:libm_error.obj
 0001:00014598       _exception_enabled         0000000140015598 f   libucrt:libm_error.obj
 0001:00014830       _log_special_common        0000000140015830 f   libucrt:log_special.obj
 0001:000148c8       ??$?RV<lambda_751a882b2c74d4b022dec766aa51a29a>@@AEAV<lambda_628dfdc04ba53c8bfc02c9951375f3f5>@@V<lambda_f6c7be5f7998530c34de24c7437d6b54>@@@?$__crt_seh_guarded_call@H@@QEAAH$$QEAV<lambda_751a882b2c74d4b022dec766aa51a29a>@@AEAV<lambda_628dfdc04ba53c8bfc02c9951375f3f5>@@$$QEAV<lambda_f6c7be5f7998530c34de24c7437d6b54>@@@Z 00000001400158c8 f   libucrt:close.obj
 0001:00014bf0       $$000000                   0000000140015bf0     libucrt:fpsr.obj
 0001:00015110       $$000000                   0000000140016110     LIBCMT:amdsecgs.obj
 0001:00015328       capture_previous_context   0000000140016328 f   LIBCMT:gs_report.obj
 0001:000153a0       $$000000                   00000001400163a0     LIBCMT:chkstk.obj
 0001:00015410       $$000000                   0000000140016410     libvcruntime:memcmp.obj
 0001:000156f4       ?FindMITargetTypeInstance@@YAPEBU_s_RTTIBaseClassDescriptor@@PEAXPEBU_s_RTTICompleteObjectLocator@@PEAUTypeDescriptor@@_J2_K@Z 00000001400166f4 f   libvcruntime:rtti.obj
 0001:0001587c       ?FindSITargetTypeInstance@@YAPEBU_s_RTTIBaseClassDescriptor@@PEBU_s_RTTICompleteObjectLocator@@PEAUTypeDescriptor@@1_K@Z 000000014001687c f   libvcruntime:rtti.obj
 0001:000159b8       ?FindVITargetTypeInstance@@YAPEBU_s_RTTIBaseClassDescriptor@@PEAXPEBU_s_RTTICompleteObjectLocator@@PEAUTypeDescriptor@@_J2_K@Z 00000001400169b8 f   libvcruntime:rtti.obj
 0001:00015d70       $$000000                   0000000140016d70     LIBCMT:guard_dispatch.obj
 0001:00015d90       ?dtor$1@?0???0CMainWnd@@QEAA@XZ@4HA 0000000140016d90 f   MainWnd.obj
 0001:00015da0       ?dtor$0@?0???0CMainWnd@@QEAA@XZ@4HA 0000000140016da0 f   MainWnd.obj
 0001:00015dac       ?dtor$0@?0??InitWindow@CMainWnd@@UEAAXXZ@4HA 0000000140016dac f   MainWnd.obj
 0001:00015dba       ?dtor$0@?0??Notify@CMainWnd@@UEAAXAEAUtagTNotifyUI@DuiLib@@@Z@4HA 0000000140016dba f   MainWnd.obj
 0001:00015dc8       ?dtor$1@?0??Notify@CMainWnd@@UEAAXAEAUtagTNotifyUI@DuiLib@@@Z@4HA 0000000140016dc8 f   MainWnd.obj
 0001:00015dd6       ?dtor$0@?0??OnClick@CMainWnd@@UEAAXAEAUtagTNotifyUI@DuiLib@@@Z@4HA 0000000140016dd6 f   MainWnd.obj
 0001:00015de4       ?dtor$0@?0??OnFinalMessage@CMainWnd@@EEAAXPEAUHWND__@@@Z@4HA 0000000140016de4 f   MainWnd.obj
 0001:00015df2       ?dtor$1@?0??OnFinalMessage@CMainWnd@@EEAAXPEAUHWND__@@@Z@4HA 0000000140016df2 f   MainWnd.obj
 0001:00015e00       ?dtor$2@?0??OnFinalMessage@CMainWnd@@EEAAXPEAUHWND__@@@Z@4HA 0000000140016e00 f   MainWnd.obj
 0001:00015e0e       ?dtor$3@?0??OnFinalMessage@CMainWnd@@EEAAXPEAUHWND__@@@Z@4HA 0000000140016e0e f   MainWnd.obj
 0001:00015e1c       ?dtor$0@?0??OnShellcodeLoadMapFunsPath@CMainWnd@@AEAAXXZ@4HA 0000000140016e1c f   MainWnd.obj
 0001:00015e1c       ?dtor$0@?0??OnSelectChanged@CMainWnd@@AEAAXAEAUtagTNotifyUI@DuiLib@@@Z@4HA 0000000140016e1c f   MainWnd.obj
 0001:00015e2a       ?dtor$0@?0??OnCalcWinApiHash@CMainWnd@@AEAAXXZ@4HA 0000000140016e2a f   MainWnd.obj
 0001:00015e38       ?dtor$0@?0??OnWideStr2DwordArry@CMainWnd@@AEAAXXZ@4HA 0000000140016e38 f   MainWnd.obj
 0001:00015e46       ?dtor$1@?0??OnWideStr2DwordArry@CMainWnd@@AEAAXXZ@4HA 0000000140016e46 f   MainWnd.obj
 0001:00015e54       ?dtor$2@?0??OnWideStr2DwordArry@CMainWnd@@AEAAXXZ@4HA 0000000140016e54 f   MainWnd.obj
 0001:00015e62       ?dtor$0@?0??OnMultStr2DowrdArry@CMainWnd@@AEAAXXZ@4HA 0000000140016e62 f   MainWnd.obj
 0001:00015e70       ?dtor$1@?0??OnMultStr2DowrdArry@CMainWnd@@AEAAXXZ@4HA 0000000140016e70 f   MainWnd.obj
 0001:00015e7e       ?dtor$2@?0??OnMultStr2DowrdArry@CMainWnd@@AEAAXXZ@4HA 0000000140016e7e f   MainWnd.obj
 0001:00015e8c       ?dtor$0@?0??OnStringCopyDest@CMainWnd@@AEAAXXZ@4HA 0000000140016e8c f   MainWnd.obj
 0001:00015e9a       ?dtor$1@?0??OnStringCopyDest@CMainWnd@@AEAAXXZ@4HA 0000000140016e9a f   MainWnd.obj
 0001:00015ea8       ?dtor$2@?0??OnStringCopyDest@CMainWnd@@AEAAXXZ@4HA 0000000140016ea8 f   MainWnd.obj
 0001:00015eb6       ?dtor$3@?0??OnStringCopyDest@CMainWnd@@AEAAXXZ@4HA 0000000140016eb6 f   MainWnd.obj
 0001:00015ec4       ?dtor$4@?0??OnStringCopyDest@CMainWnd@@AEAAXXZ@4HA 0000000140016ec4 f   MainWnd.obj
 0001:00015ed2       ?dtor$0@?0??OnApiCopyHash@CMainWnd@@AEAAXXZ@4HA 0000000140016ed2 f   MainWnd.obj
 0001:00015ee0       ?dtor$1@?0??OnApiCopyHash@CMainWnd@@AEAAXXZ@4HA 0000000140016ee0 f   MainWnd.obj
 0001:00015eee       ?dtor$2@?0??OnApiCopyHash@CMainWnd@@AEAAXXZ@4HA 0000000140016eee f   MainWnd.obj
 0001:00015efc       ?dtor$3@?0??OnApiCopyHash@CMainWnd@@AEAAXXZ@4HA 0000000140016efc f   MainWnd.obj
 0001:00015f0a       ?dtor$0@?0??OnShellcodeDump@CMainWnd@@AEAAXXZ@4HA 0000000140016f0a f   MainWnd.obj
 0001:00015f18       ?dtor$1@?0??OnShellcodeDump@CMainWnd@@AEAAXXZ@4HA 0000000140016f18 f   MainWnd.obj
 0001:00015f26       ?dtor$0@?0??OnShellcodeReadMap@CMainWnd@@AEAAXXZ@4HA 0000000140016f26 f   MainWnd.obj
 0001:00015f34       ?dtor$1@?0??OnShellcodeReadMap@CMainWnd@@AEAAXXZ@4HA 0000000140016f34 f   MainWnd.obj
 0001:00015f42       ?dtor$2@?0??OnShellcodeReadMap@CMainWnd@@AEAAXXZ@4HA 0000000140016f42 f   MainWnd.obj
 0001:00015f50       ?dtor$3@?0??OnShellcodeReadMap@CMainWnd@@AEAAXXZ@4HA 0000000140016f50 f   MainWnd.obj
 0001:00015f5e       ?dtor$4@?0??OnShellcodeReadMap@CMainWnd@@AEAAXXZ@4HA 0000000140016f5e f   MainWnd.obj
 0001:00015f7e       ?dtor$0@?0??OnShellcodeRandomFuns@CMainWnd@@AEAAXXZ@4HA 0000000140016f7e f   MainWnd.obj
 0001:00015f8c       ?dtor$1@?0??OnShellcodeRandomFuns@CMainWnd@@AEAAXXZ@4HA 0000000140016f8c f   MainWnd.obj
 0001:00015fac       ?dtor$0@?0??OnShellcodeWriteFuns@CMainWnd@@AEAAXXZ@4HA 0000000140016fac f   MainWnd.obj
 0001:00015fba       ?dtor$1@?0??OnShellcodeWriteFuns@CMainWnd@@AEAAXXZ@4HA 0000000140016fba f   MainWnd.obj
 0001:00015fc8       ?dtor$2@?0??OnShellcodeWriteFuns@CMainWnd@@AEAAXXZ@4HA 0000000140016fc8 f   MainWnd.obj
 0001:00015fd6       ?dtor$0@?0??OnTestExecSc@CMainWnd@@AEAAXXZ@4HA 0000000140016fd6 f   MainWnd.obj
 0001:00015fe4       ?dtor$1@?0??OnTestExecSc@CMainWnd@@AEAAXXZ@4HA 0000000140016fe4 f   MainWnd.obj
 0001:00015ff2       ?dtor$2@?0??OnTestExecSc@CMainWnd@@AEAAXXZ@4HA 0000000140016ff2 f   MainWnd.obj
 0001:00016000       ?filt$0@?0??__scrt_common_main_seh@@YAHXZ@4HA 0000000140017000 f   LIBCMT:exe_wwinmain.obj
 0001:0001601e       __scrt_is_nonwritable_in_current_image$filt$0 000000014001701e f   LIBCMT:utility.obj
 0001:00016036       ?filt$0@?0???$_CallSETranslator@V__FrameHandler3@@@@YAHPEAUEHExceptionRecord@@PEA_KPEAU_CONTEXT@@PEAU_xDISPATCHER_CONTEXT@@PEBU_s_FuncInfo@@K1@Z@4HA 0000000140017036 f   libvcruntime:risctrnsctrl.obj
 0001:000160c7       __DestructExceptionObject$filt$0 00000001400170c7 f   libvcruntime:ehhelpers.obj
 0001:000160df       ?filt$0@?0??CxxCallCatchBlock@__FrameHandler3@@SAPEAXPEAU_EXCEPTION_RECORD@@@Z@4HA 00000001400170df f   libvcruntime:frame.obj
 0001:00016104       ?fin$1@?0??CxxCallCatchBlock@__FrameHandler3@@SAPEAXPEAU_EXCEPTION_RECORD@@@Z@4HA 0000000140017104 f   libvcruntime:frame.obj
 0001:0001617c       ?filt$0@?0??FrameUnwindToState@__FrameHandler3@@SAXPEA_KPEAU_xDISPATCHER_CONTEXT@@PEBU_s_FuncInfo@@H@Z@4HA 000000014001717c f   libvcruntime:frame.obj
 0001:00016192       ?fin$1@?0??FrameUnwindToState@__FrameHandler3@@SAXPEA_KPEAU_xDISPATCHER_CONTEXT@@PEBU_s_FuncInfo@@H@Z@4HA 0000000140017192 f   libvcruntime:frame.obj
 0001:000161b5       _query_new_handler$fin$0   00000001400171b5 f   libucrt:new_handler.obj
 0001:000161cb       ?fin$0@?0???$?RV<lambda_d80eeec6fff315bfe5c115232f3240e3>@@AEAV<lambda_6e4b09c48022b2350581041d5f6b0c4c>@@V<lambda_2358e3775559c9db80273638284d5e45>@@@?$__crt_seh_guarded_call@X@@QEAAX$$QEAV<lambda_d80eeec6fff315bfe5c115232f3240e3>@@AEAV<lambda_6e4b09c48022b2350581041d5f6b0c4c>@@$$QEAV<lambda_2358e3775559c9db80273638284d5e45>@@@Z@4HA 00000001400171cb f   libucrt:exit.obj
 0001:000161cb       ?fin$0@?0???$?RV<lambda_450d765d439847d4c735a33c368b5fc0>@@AEAV<lambda_44731a7d0e6d81c3e6aa82d741081786>@@V<lambda_601a2a7da3b7a96e9554ac7215c4b07c>@@@?$__crt_seh_guarded_call@P6AXH@Z@@QEAAP6AXH@Z$$QEAV<lambda_450d765d439847d4c735a33c368b5fc0>@@AEAV<lambda_44731a7d0e6d81c3e6aa82d741081786>@@$$QEAV<lambda_601a2a7da3b7a96e9554ac7215c4b07c>@@@Z@4HA 00000001400171cb f   libucrt:signal.obj
 0001:000161cb       ?fin$0@?0???$?RV<lambda_0ae27a3a962d80f24befdcbee591983d>@@AEAV<lambda_8d0ee55de4b1038c4002e0adecdf1839>@@V<lambda_dc504788e8f1664fe9b84e20bfb512f2>@@@?$__crt_seh_guarded_call@X@@QEAAX$$QEAV<lambda_0ae27a3a962d80f24befdcbee591983d>@@AEAV<lambda_8d0ee55de4b1038c4002e0adecdf1839>@@$$QEAV<lambda_dc504788e8f1664fe9b84e20bfb512f2>@@@Z@4HA 00000001400171cb f   libucrt:per_thread_data.obj
 0001:000161cb       ?fin$0@?0???$?RV<lambda_efdfa57d1f175319df784efa44bb7b81>@@AEAV<lambda_5f0a4c1567f8adc6734073e5d1e1b35c>@@V<lambda_2e8a7d3640ea6ccb4c2413664c2db6fd>@@@?$__crt_seh_guarded_call@X@@QEAAX$$QEAV<lambda_efdfa57d1f175319df784efa44bb7b81>@@AEAV<lambda_5f0a4c1567f8adc6734073e5d1e1b35c>@@$$QEAV<lambda_2e8a7d3640ea6ccb4c2413664c2db6fd>@@@Z@4HA 00000001400171cb f   libucrt:mbctype.obj
 0001:000161cb       ?fin$0@?0???$?RV<lambda_2d41944a1d46af3157314b8a01080d33>@@AEAV<lambda_8f455de75cd7d7f24b4096f044d8b9e6>@@V<lambda_aa500f224e6afead328df44964fe2772>@@@?$__crt_seh_guarded_call@X@@QEAAX$$QEAV<lambda_2d41944a1d46af3157314b8a01080d33>@@AEAV<lambda_8f455de75cd7d7f24b4096f044d8b9e6>@@$$QEAV<lambda_aa500f224e6afead328df44964fe2772>@@@Z@4HA 00000001400171cb f   libucrt:per_thread_data.obj
 0001:000161cb       ?fin$0@?0???$?RV<lambda_aa87e3671a710a21b5dc78c0bdf72e11>@@AEAV<lambda_92619d2358a28f41a33ba319515a20b9>@@V<lambda_6992ecaafeb10aed2b74cb1fae11a551>@@@?$__crt_seh_guarded_call@X@@QEAAX$$QEAV<lambda_aa87e3671a710a21b5dc78c0bdf72e11>@@AEAV<lambda_92619d2358a28f41a33ba319515a20b9>@@$$QEAV<lambda_6992ecaafeb10aed2b74cb1fae11a551>@@@Z@4HA 00000001400171cb f   libucrt:per_thread_data.obj
 0001:000161cb       ?fin$0@?0???$?RV<lambda_7777bce6b2f8c936911f934f8298dc43>@@AEAV<lambda_f03950bc5685219e0bcd2087efbe011e>@@V<lambda_3883c3dff614d5e0c5f61bb1ac94921c>@@@?$__crt_seh_guarded_call@H@@QEAAH$$QEAV<lambda_7777bce6b2f8c936911f934f8298dc43>@@AEAV<lambda_f03950bc5685219e0bcd2087efbe011e>@@$$QEAV<lambda_3883c3dff614d5e0c5f61bb1ac94921c>@@@Z@4HA 00000001400171cb f   libucrt:onexit.obj
 0001:000161cb       ?fin$0@?0???$?RV<lambda_f2e299630e499de9f9a165e60fcd3db5>@@AEAV<lambda_2ae9d31cdba2644fcbeaf08da7c24588>@@V<lambda_40d01ff24d0e7b3814fdbdcee8eab3c7>@@@?$__crt_seh_guarded_call@X@@QEAAX$$QEAV<lambda_f2e299630e499de9f9a165e60fcd3db5>@@AEAV<lambda_2ae9d31cdba2644fcbeaf08da7c24588>@@$$QEAV<lambda_40d01ff24d0e7b3814fdbdcee8eab3c7>@@@Z@4HA 00000001400171cb f   libucrt:per_thread_data.obj
 0001:000161cb       ?fin$0@?0???$?RV<lambda_638799b9deba96c50f710eeac98168cd>@@AEAV<lambda_22ebabd17bc4fa466a2aca6d8deb888d>@@V<lambda_a6f7d7db0129f75315ebf26d50c089f1>@@@?$__crt_seh_guarded_call@H@@QEAAH$$QEAV<lambda_638799b9deba96c50f710eeac98168cd>@@AEAV<lambda_22ebabd17bc4fa466a2aca6d8deb888d>@@$$QEAV<lambda_a6f7d7db0129f75315ebf26d50c089f1>@@@Z@4HA 00000001400171cb f   libucrt:onexit.obj
 0001:000161e5       ?filt$0@?0???R<lambda_6e4b09c48022b2350581041d5f6b0c4c>@@QEBA@XZ@4HA 00000001400171e5 f   libucrt:exit.obj
 0001:00016200       ?fin$0@?0???$?RV<lambda_410d79af7f07d98d83a3f525b3859a53>@@AEAV<lambda_3e16ef9562a7dcce91392c22ab16ea36>@@V<lambda_38119f0e861e05405d8a144b9b982f0a>@@@?$__crt_seh_guarded_call@X@@QEAAX$$QEAV<lambda_410d79af7f07d98d83a3f525b3859a53>@@AEAV<lambda_3e16ef9562a7dcce91392c22ab16ea36>@@$$QEAV<lambda_38119f0e861e05405d8a144b9b982f0a>@@@Z@4HA 0000000140017200 f   libucrt:wsetlocale.obj
 0001:0001621a       __acrt_initialize_lowio$fin$0 000000014001721a f   libucrt:ioinit.obj
 0001:0001621a       __acrt_lowio_ensure_fh_exists$fin$0 000000014001721a f   libucrt:osfinfo.obj
 0001:00016233       ?fin$0@?0??update_thread_multibyte_data_internal@@YAPEAU__crt_multibyte_data@@QEAU__acrt_ptd@@QEAPEAU1@@Z@4HA 0000000140017233 f   libucrt:mbctype.obj
 0001:0001624c       __acrt_update_thread_locale_data$fin$0 000000014001724c f   libucrt:locale_refcounting.obj
 0001:00016265       raise$fin$0                0000000140017265 f   libucrt:signal.obj
 0001:00016286       ?fin$0@?0???$?RV<lambda_842d9ff0dc9ef11c61343bbaebe7f885>@@AEAV<lambda_c5860995281e5c4ce005b3de8f5874ee>@@V<lambda_d90129c13df834fdcbf8d2b88dafcf2d>@@@?$__crt_seh_guarded_call@X@@QEAAX$$QEAV<lambda_842d9ff0dc9ef11c61343bbaebe7f885>@@AEAV<lambda_c5860995281e5c4ce005b3de8f5874ee>@@$$QEAV<lambda_d90129c13df834fdcbf8d2b88dafcf2d>@@@Z@4HA 0000000140017286 f   libucrt:fflush.obj
 0001:000162a1       ?fin$0@?0???$?RV<lambda_886d6c58226a84441f68b9f2b8217b83>@@AEAV<lambda_ab61a845afdef5b7c387490eaf3616ee>@@V<lambda_f7f22ab5edc0698d5f6905b0d3f44752>@@@?$__crt_seh_guarded_call@X@@QEAAX$$QEAV<lambda_886d6c58226a84441f68b9f2b8217b83>@@AEAV<lambda_ab61a845afdef5b7c387490eaf3616ee>@@$$QEAV<lambda_f7f22ab5edc0698d5f6905b0d3f44752>@@@Z@4HA 00000001400172a1 f   libucrt:fflush.obj
 0001:000162be       _fcloseall$fin$0           00000001400172be f   libucrt:closeall.obj
 0001:000162d7       ?fin$0@?0???$?RV<lambda_a37b2b86f63e897a80ea819b0eb08c01>@@AEAV<lambda_38ce7e780aa69e748d6df282ebc68efe>@@V<lambda_99fb1378e971ab6e7edea83e3a7a83a2>@@@?$__crt_seh_guarded_call@H@@QEAAH$$QEAV<lambda_a37b2b86f63e897a80ea819b0eb08c01>@@AEAV<lambda_38ce7e780aa69e748d6df282ebc68efe>@@$$QEAV<lambda_99fb1378e971ab6e7edea83e3a7a83a2>@@@Z@4HA 00000001400172d7 f   libucrt:commit.obj
 0001:000162d7       ?fin$0@?0???$?RV<lambda_751a882b2c74d4b022dec766aa51a29a>@@AEAV<lambda_628dfdc04ba53c8bfc02c9951375f3f5>@@V<lambda_f6c7be5f7998530c34de24c7437d6b54>@@@?$__crt_seh_guarded_call@H@@QEAAH$$QEAV<lambda_751a882b2c74d4b022dec766aa51a29a>@@AEAV<lambda_628dfdc04ba53c8bfc02c9951375f3f5>@@$$QEAV<lambda_f6c7be5f7998530c34de24c7437d6b54>@@@Z@4HA 00000001400172d7 f   libucrt:close.obj
 0001:000162f1       _write$fin$0               00000001400172f1 f   libucrt:write.obj
 0001:00016308       fclose$fin$0               0000000140017308 f   libucrt:fclose.obj
 0001:00016320       _ctrlfp$filt$0             0000000140017320 f   libucrt:fpctrl.obj
 0001:00016350       _IsNonwritableInCurrentImage$filt$0 0000000140017350 f   LIBCMT:pesect.obj
 0001:00016370       __RTDynamicCast$filt$0     0000000140017370 f   libvcruntime:rtti.obj
 0002:00000558       ?pre_cpp_initializer@@3P6AXXZEA 0000000140018558     LIBCMT:exe_wwinmain.obj
 0002:00000570       ?pre_c_initializer@@3P6AHXZEA 0000000140018570     LIBCMT:exe_wwinmain.obj
 0002:00000578       ?post_pgo_initializer@@3P6AHXZEA 0000000140018578     LIBCMT:exe_wwinmain.obj
 0002:00000680       ?ExceptionTemplate@?1??UnwindNestedFrames@__FrameHandler3@@SAXPEA_KPEAUEHExceptionRecord@@PEAU_CONTEXT@@0PEAXPEBU_s_FuncInfo@@HHPEBU_s_HandlerType@@PEAU_xDISPATCHER_CONTEXT@@E@Z@4U_EXCEPTION_RECORD@@B 0000000140018680     libvcruntime:risctrnsctrl.obj
 0002:00000720       ?ExceptionTemplate@?1??_CxxThrowException@@9@4UEHExceptionRecord@@B 0000000140018720     libvcruntime:throw.obj
 0002:00000788       ?module_names@?A0xbfd18cd1@@3QBQEB_WB 0000000140018788     libvcruntime:winapi_downlevel.obj
 0002:00000858       ?candidate_modules@?1??try_get_FlsAlloc@@YAP6AKP6AXPEAX@Z@ZXZ@4QBW4module_id@?A0xbfd18cd1@@B 0000000140018858     libvcruntime:winapi_downlevel.obj
 0002:00000870       ?candidate_modules@?1??try_get_FlsFree@@YAP6AHK@ZXZ@4QBW4module_id@?A0xbfd18cd1@@B 0000000140018870     libvcruntime:winapi_downlevel.obj
 0002:00000880       ?candidate_modules@?1??try_get_FlsGetValue@@YAP6APEAXK@ZXZ@4QBW4module_id@?A0xbfd18cd1@@B 0000000140018880     libvcruntime:winapi_downlevel.obj
 0002:00000898       ?candidate_modules@?1??try_get_FlsSetValue@@YAP6AHKPEAX@ZXZ@4QBW4module_id@?A0xbfd18cd1@@B 0000000140018898     libvcruntime:winapi_downlevel.obj
 0002:000008b0       ?candidate_modules@?1??try_get_InitializeCriticalSectionEx@@YAP6AHPEAU_RTL_CRITICAL_SECTION@@KK@ZXZ@4QBW4module_id@?A0xbfd18cd1@@B 00000001400188b0     libvcruntime:winapi_downlevel.obj
 0002:000008e0       ?tokenTable@@3QBQEBDB      00000001400188e0     libvcruntime:undname.obj
 0002:00000960       ?nameTable@@3QBQEBDB       0000000140018960     libvcruntime:undname.obj
 0002:00000bf0       ?rttiTable@@3QBQEBDB       0000000140018bf0     libvcruntime:undname.obj
 0002:00001430       __acrt_initializers        0000000140019430     libucrt:initialization.obj
 0002:00001530       ?errtable@@3QBUerrentry@?A0x31fdb9ec@@B 0000000140019530     libucrt:errno.obj
 0002:000016a0       ?strings@?1??fp_format_nan_or_infinity@@YAHW4__acrt_fp_class@@_NPEAD_K1@Z@4QAY03QEBDA 00000001400196a0     libucrt:cvt.obj
 0002:00002608       ?_mb_locale_names@@3QBQEB_WB 000000014001a608     libucrt:mbctype.obj
 0002:00002670       ?module_names@?A0x391cf84c@@3QBQEB_WB 000000014001a670     libucrt:winapi_thunks.obj
 0002:00002b68       ?candidate_modules@?1??try_get_FlsAlloc@@YAP6AKP6AXPEAX@Z@ZXZ@4QBW4module_id@?A0x391cf84c@@B 000000014001ab68     libucrt:winapi_thunks.obj
 0002:00002b70       ?candidate_modules@?1??try_get_FlsFree@@YAP6AHK@ZXZ@4QBW4module_id@?A0x391cf84c@@B 000000014001ab70     libucrt:winapi_thunks.obj
 0002:00002b78       ?candidate_modules@?1??try_get_FlsGetValue@@YAP6APEAXK@ZXZ@4QBW4module_id@?A0x391cf84c@@B 000000014001ab78     libucrt:winapi_thunks.obj
 0002:00002b80       ?candidate_modules@?1??try_get_FlsSetValue@@YAP6AHKPEAX@ZXZ@4QBW4module_id@?A0x391cf84c@@B 000000014001ab80     libucrt:winapi_thunks.obj
 0002:00002b88       ?candidate_modules@?1??try_get_InitializeCriticalSectionEx@@YAP6AHPEAU_RTL_CRITICAL_SECTION@@KK@ZXZ@4QBW4module_id@?A0x391cf84c@@B 000000014001ab88     libucrt:winapi_thunks.obj
 0002:00002b90       ?candidate_modules@?1??try_get_LCMapStringEx@@YAP6AHPEB_WK0HPEA_WHPEAU_nlsversioninfo@@PEAX_J@ZXZ@4QBW4module_id@?A0x391cf84c@@B 000000014001ab90     libucrt:winapi_thunks.obj
 0002:00002ba8       ?candidate_modules@?1??try_get_LocaleNameToLCID@@YAP6AKPEB_WK@ZXZ@4QBW4module_id@?A0x391cf84c@@B 000000014001aba8     libucrt:winapi_thunks.obj
 0002:00002bc4       ?candidate_modules@?1??try_get_AppPolicyGetProcessTerminationMethod@@YAP6AJPEAXPEAW4AppPolicyProcessTerminationMethod@@@ZXZ@4QBW4module_id@?A0x391cf84c@@B 000000014001abc4     libucrt:winapi_thunks.obj
 0002:00003500       ?large_power_indices@?1??multiply_by_power_of_ten@__crt_strtox@@YA_NAEAUbig_integer@2@I@Z@4QBUunpack_index@?1??12@YA_N0I@Z@B 000000014001b500     libucrt:cfout.obj
 0002:000035e0       ?LcidToLocaleNameTable@?A0x881e4c05@@3QBULcidToLocaleName@1@B 000000014001b5e0     libucrt:lcidtoname_downlevel.obj
 0002:00005030       ?LocaleNameToIndexTable@?A0x881e4c05@@3QBULocaleNameIndex@1@B 000000014001d030     libucrt:lcidtoname_downlevel.obj
 0002:000068d0       __real_ninf                000000014001e8d0     libucrt:log10.obj
 0002:000068e0       __real_inf                 000000014001e8e0     libucrt:log10.obj
 0002:000068f0       __real_neg_qnan            000000014001e8f0     libucrt:log10.obj
 0002:00006900       __real_qnanbit             000000014001e900     libucrt:log10.obj
 0002:00006910       __int_1023                 000000014001e910     libucrt:log10.obj
 0002:00006920       __mask_001                 000000014001e920     libucrt:log10.obj
 0002:00006930       __mask_mant                000000014001e930     libucrt:log10.obj
 0002:00006940       __mask_mant_top8           000000014001e940     libucrt:log10.obj
 0002:00006950       __mask_mant9               000000014001e950     libucrt:log10.obj
 0002:00006960       __real_log10_e             000000014001e960     libucrt:log10.obj
 0002:00006970       __real_log10_e_lead        000000014001e970     libucrt:log10.obj
 0002:00006980       __real_log10_e_tail        000000014001e980     libucrt:log10.obj
 0002:00006990       __real_log10_2_lead        000000014001e990     libucrt:log10.obj
 0002:000069a0       __real_log10_2_tail        000000014001e9a0     libucrt:log10.obj
 0002:000069b0       __real_two                 000000014001e9b0     libucrt:log10.obj
 0002:000069c0       __real_one                 000000014001e9c0     libucrt:log10.obj
 0002:000069d0       __real_half                000000014001e9d0     libucrt:log10.obj
 0002:000069e0       __mask_100                 000000014001e9e0     libucrt:log10.obj
 0002:000069f0       __real_1_over_512          000000014001e9f0     libucrt:log10.obj
 0002:00006a00       __real_1_over_2            000000014001ea00     libucrt:log10.obj
 0002:00006a10       __real_1_over_3            000000014001ea10     libucrt:log10.obj
 0002:00006a20       __real_1_over_4            000000014001ea20     libucrt:log10.obj
 0002:00006a30       __real_1_over_5            000000014001ea30     libucrt:log10.obj
 0002:00006a40       __real_1_over_6            000000014001ea40     libucrt:log10.obj
 0002:00006a50       __real_neg_1023            000000014001ea50     libucrt:log10.obj
 0002:00006a60       __mask_2045                000000014001ea60     libucrt:log10.obj
 0002:00006a70       __real_threshold           000000014001ea70     libucrt:log10.obj
 0002:00006a80       __real_near_one_lt         000000014001ea80     libucrt:log10.obj
 0002:00006a90       __real_near_one_gt         000000014001ea90     libucrt:log10.obj
 0002:00006aa0       __real_min_norm            000000014001eaa0     libucrt:log10.obj
 0002:00006ab0       __real_notsign             000000014001eab0     libucrt:log10.obj
 0002:00006ac0       __real_ca1                 000000014001eac0     libucrt:log10.obj
 0002:00006ad0       __real_ca2                 000000014001ead0     libucrt:log10.obj
 0002:00006ae0       __real_ca3                 000000014001eae0     libucrt:log10.obj
 0002:00006af0       __real_ca4                 000000014001eaf0     libucrt:log10.obj
 0002:00006b00       __mask_lower               000000014001eb00     libucrt:log10.obj
 0002:00006b10       __flag_x_zero              000000014001eb10     libucrt:log10.obj
 0002:00006b14       __flag_x_neg               000000014001eb14     libucrt:log10.obj
 0002:00006b18       __flag_x_nan               000000014001eb18     libucrt:log10.obj
 0002:00008370       __real@433fffffffffffff    0000000140020370     libucrt:fpsr.obj
 0002:00008378       __real@c33fffffffffffff    0000000140020378     libucrt:fpsr.obj
 0002:00008380       GS_ExceptionPointers       0000000140020380     LIBCMT:gs_report.obj
 0002:00008cf0       $cppxdata$?OnTestExecSc@CMainWnd@@AEAAXXZ 0000000140020cf0     MainWnd.obj
 0002:00008d18       $cppxdata$?OnShellcodeWriteFuns@CMainWnd@@AEAAXXZ 0000000140020d18     MainWnd.obj
 0002:00008d40       $cppxdata$?OnShellcodeRandomFuns@CMainWnd@@AEAAXXZ 0000000140020d40     MainWnd.obj
 0002:00008d68       $cppxdata$?OnShellcodeReadMap@CMainWnd@@AEAAXXZ 0000000140020d68     MainWnd.obj
 0002:00008d90       $cppxdata$?OnShellcodeLoadMapFunsPath@CMainWnd@@AEAAXXZ 0000000140020d90     MainWnd.obj
 0002:00008db8       $cppxdata$?OnShellcodeDump@CMainWnd@@AEAAXXZ 0000000140020db8     MainWnd.obj
 0002:00008de0       $cppxdata$?OnApiCopyHash@CMainWnd@@AEAAXXZ 0000000140020de0     MainWnd.obj
 0002:00008e08       $cppxdata$?OnStringCopyDest@CMainWnd@@AEAAXXZ 0000000140020e08     MainWnd.obj
 0002:00008e30       $cppxdata$?OnMultStr2DowrdArry@CMainWnd@@AEAAXXZ 0000000140020e30     MainWnd.obj
 0002:00008e58       $cppxdata$?OnWideStr2DwordArry@CMainWnd@@AEAAXXZ 0000000140020e58     MainWnd.obj
 0002:00008e80       $cppxdata$?OnCalcWinApiHash@CMainWnd@@AEAAXXZ 0000000140020e80     MainWnd.obj
 0002:00008ea8       $cppxdata$?OnSelectChanged@CMainWnd@@AEAAXAEAUtagTNotifyUI@DuiLib@@@Z 0000000140020ea8     MainWnd.obj
 0002:00008ed0       $cppxdata$?OnFinalMessage@CMainWnd@@EEAAXPEAUHWND__@@@Z 0000000140020ed0     MainWnd.obj
 0002:00008ef8       $cppxdata$?OnClick@CMainWnd@@UEAAXAEAUtagTNotifyUI@DuiLib@@@Z 0000000140020ef8     MainWnd.obj
 0002:00008f20       $cppxdata$?Notify@CMainWnd@@UEAAXAEAUtagTNotifyUI@DuiLib@@@Z 0000000140020f20     MainWnd.obj
 0002:00008f48       $cppxdata$?InitWindow@CMainWnd@@UEAAXXZ 0000000140020f48     MainWnd.obj
 0002:00008f70       $cppxdata$??0CMainWnd@@QEAA@XZ 0000000140020f70     MainWnd.obj
 0002:00009dd0       $unwind$Shellcode          0000000140021dd0     scx.obj
 0002:00009de0       $unwind$scx_GetProcAddressWithHash 0000000140021de0     GetProcAddressWithHash.obj
 0002:00009e00       $unwind$?construct_ptd_array@@YAXQEAU__acrt_ptd@@@Z 0000000140021e00     libucrt:per_thread_data.obj
 0002:00009e00       $unwind$scx_MsgBox         0000000140021e00     scx.obj
 0002:00009e08       $unwind$__acrt_update_thread_multibyte_data 0000000140021e08     libucrt:mbctype.obj
 0002:00009e08       $unwind$__acrt_initialize_command_line 0000000140021e08     libucrt:argv_data.obj
 0002:00009e08       $unwind$_msize_base        0000000140021e08     libucrt:msize.obj
 0002:00009e08       $unwind$__dcrt_uninitialize_environments_nolock 0000000140021e08     libucrt:environment_initialization.obj
 0002:00009e08       $unwind$?GetClassStyle@CMainWnd@@UEBAIXZ 0000000140021e08     MainWnd.obj
 0002:00009e08       $unwind$?initialize_multibyte@@YAHXZ 0000000140021e08     libucrt:multibyte_initializer.obj
 0002:00009e08       $unwind$_isatty            0000000140021e08     libucrt:isatty.obj
 0002:00009e08       $unwind$??$uninitialize_environment_internal@_W@@YAXAEAPEAPEA_W@Z 0000000140021e08     libucrt:environment_initialization.obj
 0002:00009e08       $unwind$_get_osfhandle     0000000140021e08     libucrt:osfinfo.obj
 0002:00009e08       $unwind$_set_new_mode      0000000140021e08     libucrt:new_mode.obj
 0002:00009e08       $unwind$__acrt_initialize_ptd 0000000140021e08     libucrt:per_thread_data.obj
 0002:00009e08       $unwind$__doserrno         0000000140021e08     libucrt:errno.obj
 0002:00009e08       $unwind$_errno             0000000140021e08     libucrt:errno.obj
 0002:00009e08       $unwind$__acrt_initialize_multibyte 0000000140021e08     libucrt:mbctype.obj
 0002:00009e08       $unwind$rand               0000000140021e08     libucrt:rand.obj
 0002:00009e08       $unwind$__acrt_uninitialize_ptd 0000000140021e08     libucrt:per_thread_data.obj
 0002:00009e08       $unwind$__acrt_release_locale_ref 0000000140021e08     libucrt:locale_refcounting.obj
 0002:00009e08       $unwind$_GetThrowImageBase 0000000140021e08     libvcruntime:risctrnsctrl.obj
 0002:00009e08       $unwind$__dcrt_terminate_console_output 0000000140021e08     libucrt:initcon.obj
 0002:00009e08       $unwind$scx_GetCPUPtr      0000000140021e08     ScxGadgets.obj
 0002:00009e08       $unwind$wWinMainCRTStartup 0000000140021e08     LIBCMT:exe_wwinmain.obj
 0002:00009e08       $unwind$__scrt_unhandled_exception_filter 0000000140021e08     LIBCMT:utility_desktop.obj
 0002:00009e08       $unwind$__scrt_is_managed_app 0000000140021e08     LIBCMT:utility_desktop.obj
 0002:00009e08       $unwind$_set_errno_from_matherr 0000000140021e08     libucrt:fpexcept.obj
 0002:00009e08       $unwind$?post_pgo_initialization@@YAHXZ 0000000140021e08     LIBCMT:exe_wwinmain.obj
 0002:00009e08       $unwind$__scrt_initialize_default_local_stdio_options 0000000140021e08     LIBCMT:default_local_stdio_options.obj
 0002:00009e08       $unwind$_invoke_watson     0000000140021e08     libucrt:invalid_parameter.obj
 0002:00009e08       $unwind$__scrt_acquire_startup_lock 0000000140021e08     LIBCMT:utility.obj
 0002:00009e08       $unwind$_purecall          0000000140021e08     libvcruntime:purevirt.obj
 0002:00009e08       $unwind$?__c32rtomb_utf8@__crt_mbstring@@YA_KPEAD_UPEAU_Mbstatet@@@Z 0000000140021e08     libucrt:c32rtomb.obj
 0002:00009e08       $unwind$abort              0000000140021e08     libucrt:abort.obj
 0002:00009e08       $unwind$_register_thread_local_exe_atexit_callback 0000000140021e08     libucrt:exit.obj
 0002:00009e08       $unwind$__FrameUnwindFilter 0000000140021e08     libvcruntime:ehhelpers.obj
 0002:00009e08       $unwind$uninitialize_allocated_io_buffers 0000000140021e08     libucrt:initialization.obj
 0002:00009e08       $unwind$?state_case_normal_tchar@?$output_processor@DV?$string_output_adapter@D@__crt_stdio_output@@V?$format_validation_base@DV?$string_output_adapter@D@__crt_stdio_output@@@2@@__crt_stdio_output@@AEAA_ND@Z 0000000140021e08     libucrt:output.obj
 0002:00009e08       $unwind$__GSHandlerCheck   0000000140021e08     LIBCMT:gshandler.obj
 0002:00009e08       $unwind$?state_case_size@?$output_processor@DV?$string_output_adapter@D@__crt_stdio_output@@V?$format_validation_base@DV?$string_output_adapter@D@__crt_stdio_output@@@2@@__crt_stdio_output@@AEAA_NXZ 0000000140021e08     libucrt:output.obj
 0002:00009e08       $unwind$atexit             0000000140021e08     LIBCMT:utility.obj
 0002:00009e08       $unwind$__acrt_initialize_heap 0000000140021e08     libucrt:heap_handle.obj
 0002:00009e08       $unwind$_GetImageBase      0000000140021e08     libvcruntime:risctrnsctrl.obj
 0002:00009e08       $unwind$_statfp            0000000140021e08     libucrt:fpctrl.obj
 0002:00009e08       $unwind$uninitialize_environment 0000000140021e08     libucrt:initialization.obj
 0002:00009e08       $unwind$initialize_c       0000000140021e08     libucrt:initialization.obj
 0002:00009e08       $unwind$?GetCurrentState@__FrameHandler3@@SAHPEA_KPEAU_xDISPATCHER_CONTEXT@@PEBU_s_FuncInfo@@@Z 0000000140021e08     libvcruntime:ehstate.obj
 0002:00009e08       $unwind$_set_fmode         0000000140021e08     libucrt:setmode.obj
 0002:00009e08       $unwind$__vcrt_initialize  0000000140021e08     libvcruntime:initialization.obj
 0002:00009e08       $unwind$__vcrt_uninitialize 0000000140021e08     libvcruntime:initialization.obj
 0002:00009e08       $unwind$__vcrt_freefls     0000000140021e08     libvcruntime:per_thread_data.obj
 0002:00009e08       $unwind$__vcrt_getptd      0000000140021e08     libvcruntime:per_thread_data.obj
 0002:00009e08       $unwind$__vcrt_uninitialize_ptd 0000000140021e08     libvcruntime:per_thread_data.obj
 0002:00009e08       $unwind$?pre_cpp_initialization@@YAXXZ 0000000140021e08     LIBCMT:exe_wwinmain.obj
 0002:00009e08       $unwind$__vcrt_initialize_ptd 0000000140021e08     libvcruntime:per_thread_data.obj
 0002:00009e08       $unwind$__acrt_uninitialize 0000000140021e08     libucrt:initialization.obj
 0002:00009e08       $unwind$_fileno            0000000140021e08     libucrt:fileno.obj
 0002:00009e08       $unwind$__pctype_func      0000000140021e08     libucrt:ctype.obj
 0002:00009e08       $unwind$?state_case_size@?$output_processor@_WV?$string_output_adapter@_W@__crt_stdio_output@@V?$format_validation_base@_WV?$string_output_adapter@_W@__crt_stdio_output@@@2@@__crt_stdio_output@@AEAA_NXZ 0000000140021e08     libucrt:output.obj
 0002:00009e08       $unwind$??$uninitialize_environment_internal@D@@YAXAEAPEAPEAD@Z 0000000140021e08     libucrt:environment_initialization.obj
 0002:00009e10       $unwind$_fflush_nolock     0000000140021e10     libucrt:fflush.obj
 0002:00009e10       $unwind$?state_case_normal@?$output_processor@DV?$string_output_adapter@D@__crt_stdio_output@@V?$format_validation_base@DV?$string_output_adapter@D@__crt_stdio_output@@@2@@__crt_stdio_output@@AEAA_NXZ 0000000140021e10     libucrt:output.obj
 0002:00009e10       $unwind$__scrt_initialize_crt 0000000140021e10     LIBCMT:utility.obj
 0002:00009e10       $unwind$__scrt_release_startup_lock 0000000140021e10     LIBCMT:utility.obj
 0002:00009e10       $unwind$_calloc_base       0000000140021e10     libucrt:calloc_base.obj
 0002:00009e10       $unwind$??0__non_rtti_object@std@@QEAA@AEBV01@@Z 0000000140021e10     libvcruntime:rtti.obj
 0002:00009e10       $unwind$?StateFromIp@__FrameHandler3@@SAHPEBU_s_FuncInfo@@PEAU_xDISPATCHER_CONTEXT@@_K@Z 0000000140021e10     libvcruntime:ehstate.obj
 0002:00009e10       $unwind$__raise_securityfailure 0000000140021e10     LIBCMT:gs_report.obj
 0002:00009e10       $unwind$_onexit            0000000140021e10     LIBCMT:utility.obj
 0002:00009e10       $unwind$?type_case_c_tchar@?$output_processor@DV?$string_output_adapter@D@__crt_stdio_output@@V?$format_validation_base@DV?$string_output_adapter@D@__crt_stdio_output@@@2@@__crt_stdio_output@@AEAA_ND@Z 0000000140021e10     libucrt:output.obj
 0002:00009e10       $unwind$?GetUnwindTryBlock@__FrameHandler3@@SAHPEA_KPEAU_xDISPATCHER_CONTEXT@@PEBU_s_FuncInfo@@@Z 0000000140021e10     libvcruntime:ehstate.obj
 0002:00009e10       $unwind$__acrt_uninitialize_locks 0000000140021e10     libucrt:locks.obj
 0002:00009e10       $unwind$?type_case_s@?$output_processor@DV?$string_output_adapter@D@__crt_stdio_output@@V?$format_validation_base@DV?$string_output_adapter@D@__crt_stdio_output@@@2@@__crt_stdio_output@@AEAA_NXZ 0000000140021e10     libucrt:output.obj
 0002:00009e10       $unwind$wWinMain           0000000140021e10     DUI_ShellcodeX.obj
 0002:00009e10       $unwind$_configthreadlocale 0000000140021e10     libucrt:wsetlocale.obj
 0002:00009e10       $unwind$__std_exception_destroy 0000000140021e10     libvcruntime:std_exception.obj
 0002:00009e10       $unwind$__acrt_initialize_locks 0000000140021e10     libucrt:locks.obj
 0002:00009e10       $unwind$??0bad_array_new_length@std@@QEAA@AEBV01@@Z 0000000140021e10     LIBCMT:throw_bad_alloc.obj
 0002:00009e10       $unwind$fegetenv           0000000140021e10     libucrt:fegetenv.obj
 0002:00009e10       $unwind$__acrt_uninitialize_stdio 0000000140021e10     libucrt:_file.obj
 0002:00009e10       $unwind$?ExecutionInCatch@__FrameHandler3@@SA_NPEAU_xDISPATCHER_CONTEXT@@PEBU_s_FuncInfo@@@Z 0000000140021e10     libvcruntime:risctrnsctrl.obj
 0002:00009e10       $unwind$??0bad_typeid@std@@QEAA@AEBV01@@Z 0000000140021e10     libvcruntime:rtti.obj
 0002:00009e10       $unwind$??1WindowImplBase@DuiLib@@UEAA@XZ 0000000140021e10     MainWnd.obj
 0002:00009e10       $unwind$fesetenv           0000000140021e10     libucrt:fesetenv.obj
 0002:00009e10       $unwind$?GetSkinFolder@CMainWnd@@UEAA?AVCDuiString@DuiLib@@XZ 0000000140021e10     MainWnd.obj
 0002:00009e10       $unwind$??0bad_cast@std@@QEAA@AEBV01@@Z 0000000140021e10     libvcruntime:rtti.obj
 0002:00009e10       $unwind$_set_statfp        0000000140021e10     libucrt:fpctrl.obj
 0002:00009e10       $unwind$initialize_pointers 0000000140021e10     libucrt:initialization.obj
 0002:00009e10       $unwind$uninitialize_allocated_memory 0000000140021e10     libucrt:initialization.obj
 0002:00009e10       $unwind$?exit_or_terminate_process@@YAXI@Z 0000000140021e10     libucrt:exit.obj
 0002:00009e10       $unwind$_IsExceptionObjectToBeDestroyed 0000000140021e10     libvcruntime:ehhelpers.obj
 0002:00009e10       $unwind$?GetSkinFile@CMainWnd@@UEAA?AVCDuiString@DuiLib@@XZ 0000000140021e10     MainWnd.obj
 0002:00009e10       $unwind$__acrt_get_process_end_policy 0000000140021e10     libucrt:win_policies.obj
 0002:00009e10       $unwind$wcscpy_s           0000000140021e10     libucrt:wcscpy_s.obj
 0002:00009e10       $unwind$__acrt_stdio_free_buffer_nolock 0000000140021e10     libucrt:_freebuf.obj
 0002:00009e10       $unwind$_wcsupr            0000000140021e10     libucrt:wcsupr.obj
 0002:00009e10       $unwind$?try_cor_exit_process@@YAXI@Z 0000000140021e10     libucrt:exit.obj
 0002:00009e10       $unwind$_clrfp             0000000140021e10     libucrt:fpctrl.obj
 0002:00009e10       $unwind$__acrt_AppPolicyGetProcessTerminationMethodInternal 0000000140021e10     libucrt:winapi_thunks.obj
 0002:00009e10       $unwind$??0bad_alloc@std@@QEAA@AEBV01@@Z 0000000140021e10     LIBCMT:throw_bad_alloc.obj
 0002:00009e10       $unwind$feholdexcept       0000000140021e10     libucrt:feholdexcept.obj
 0002:00009e10       $unwind$__vcrt_FlsGetValue 0000000140021e10     libvcruntime:winapi_downlevel.obj
 0002:00009e10       $unwind$__vcrt_FlsFree     0000000140021e10     libvcruntime:winapi_downlevel.obj
 0002:00009e10       $unwind$_malloc_base       0000000140021e10     libucrt:malloc_base.obj
 0002:00009e10       $unwind$__vcrt_FlsAlloc    0000000140021e10     libvcruntime:winapi_downlevel.obj
 0002:00009e10       $unwind$??0exception@std@@QEAA@AEBV01@@Z 0000000140021e10     LIBCMT:throw_bad_alloc.obj
 0002:00009e10       $unwind$__vcrt_uninitialize_locks 0000000140021e10     libvcruntime:locks.obj
 0002:00009e10       $unwind$__vcrt_initialize_locks 0000000140021e10     libvcruntime:locks.obj
 0002:00009e10       $unwind$__acrt_FlsGetValue 0000000140021e10     libucrt:winapi_thunks.obj
 0002:00009e10       $unwind$strcpy_s           0000000140021e10     libucrt:strcpy_s.obj
 0002:00009e10       $unwind$__acrt_FlsFree     0000000140021e10     libucrt:winapi_thunks.obj
 0002:00009e10       $unwind$__acrt_update_multibyte_info 0000000140021e10     libucrt:locale_update.obj
 0002:00009e10       $unwind$__acrt_FlsAlloc    0000000140021e10     libucrt:winapi_thunks.obj
 0002:00009e10       $unwind$??_Gtype_info@@UEAAPEAXI@Z 0000000140021e10     LIBCMT:std_type_info_static.obj
 0002:00009e10       $unwind$__acrt_uninitialize_winapi_thunks 0000000140021e10     libucrt:winapi_thunks.obj
 0002:00009e10       $unwind$??2@YAPEAX_K@Z     0000000140021e10     LIBCMT:new_scalar.obj
 0002:00009e10       $unwind$strcat_s           0000000140021e10     libucrt:strcat_s.obj
 0002:00009e10       $unwind$_CreateFrameInfo   0000000140021e10     libvcruntime:risctrnsctrl.obj
 0002:00009e10       $unwind$_SetThrowImageBase 0000000140021e10     libvcruntime:risctrnsctrl.obj
 0002:00009e10       $unwind$??0bad_exception@std@@QEAA@AEBV01@@Z 0000000140021e10     libvcruntime:frame.obj
 0002:00009e10       $unwind$__acrt_update_locale_info 0000000140021e10     libucrt:locale_update.obj
 0002:00009e10       $unwind$wcscat_s           0000000140021e10     libucrt:wcscat_s.obj
 0002:00009e10       $unwind$_clearfp           0000000140021e10     libucrt:ieee.obj
 0002:00009e10       $unwind$?ExFilterRethrow@@YAHPEAU_EXCEPTION_POINTERS@@PEAUEHExceptionRecord@@PEAH@Z 0000000140021e10     libvcruntime:frame.obj
 0002:00009e10       $unwind$?pre_c_initialization@@YAHXZ 0000000140021e10     LIBCMT:exe_wwinmain.obj
 0002:00009e10       $unwind$_callnewh          0000000140021e10     libucrt:new_handler.obj
 0002:00009e10       $unwind$__scrt_uninitialize_crt 0000000140021e10     LIBCMT:utility.obj
 0002:00009e10       $unwind$_SetImageBase      0000000140021e10     libvcruntime:risctrnsctrl.obj
 0002:00009e10       $unwind$__acrt_getptd_head 0000000140021e10     libucrt:per_thread_data.obj
 0002:00009e10       $unwind$__acrt_allocate_buffer_for_argv 0000000140021e10     libucrt:argv_parsing.obj
 0002:00009e18       $unwind$??0CMainWnd@@QEAA@XZ 0000000140021e18     MainWnd.obj
 0002:00009e2c       $stateUnwindMap$??0CMainWnd@@QEAA@XZ 0000000140021e2c     MainWnd.obj
 0002:00009e40       $ip2state$??0CMainWnd@@QEAA@XZ 0000000140021e40     MainWnd.obj
 0002:00009e60       $unwind$_fclose_nolock     0000000140021e60     libucrt:fclose.obj
 0002:00009e60       $unwind$??_GCMainWnd@@UEAAPEAXI@Z 0000000140021e60     MainWnd.obj
 0002:00009e60       $unwind$??_Gbad_exception@std@@UEAAPEAXI@Z 0000000140021e60     libvcruntime:frame.obj
 0002:00009e60       $unwind$_updatetlocinfoEx_nolock 0000000140021e60     libucrt:locale_refcounting.obj
 0002:00009e60       $unwind$_realloc_base      0000000140021e60     libucrt:realloc_base.obj
 0002:00009e60       $unwind$_RTC_Initialize    0000000140021e60     LIBCMT:initsect.obj
 0002:00009e60       $unwind$_RTC_Terminate     0000000140021e60     LIBCMT:initsect.obj
 0002:00009e60       $unwind$?replace_current_thread_locale_nolock@@YAXQEAU__acrt_ptd@@QEAU__crt_locale_data@@@Z 0000000140021e60     libucrt:per_thread_data.obj
 0002:00009e60       $unwind$wcsncpy_s          0000000140021e60     libucrt:wcsncpy_s.obj
 0002:00009e60       $unwind$_close_nolock      0000000140021e60     libucrt:close.obj
 0002:00009e60       $unwind$__acrt_FlsSetValue 0000000140021e60     libucrt:winapi_thunks.obj
 0002:00009e60       $unwind$??$common_initialize_environment_nolock@_W@@YAHXZ 0000000140021e60     libucrt:environment_initialization.obj
 0002:00009e60       $unwind$??_Gexception@std@@UEAAPEAXI@Z 0000000140021e60     LIBCMT:throw_bad_alloc.obj
 0002:00009e60       $unwind$?SetUnwindTryBlock@__FrameHandler3@@SAXPEA_KPEAU_xDISPATCHER_CONTEXT@@PEBU_s_FuncInfo@@H@Z 0000000140021e60     libvcruntime:ehstate.obj
 0002:00009e60       $unwind$??_Gbad_typeid@std@@UEAAPEAXI@Z 0000000140021e60     libvcruntime:rtti.obj
 0002:00009e60       $unwind$__acrt_errno_map_os_error 0000000140021e60     libucrt:errno.obj
 0002:00009e60       $unwind$_FindAndUnlinkFrame 0000000140021e60     libvcruntime:risctrnsctrl.obj
 0002:00009e60       $unwind$__acrt_LocaleNameToLCID 0000000140021e60     libucrt:winapi_thunks.obj
 0002:00009e60       $unwind$__vcrt_FlsSetValue 0000000140021e60     libvcruntime:winapi_downlevel.obj
 0002:00009e60       $unwind$_initterm_e        0000000140021e60     libucrt:initterm.obj
 0002:00009e60       $unwind$??_GWindowImplBase@DuiLib@@UEAAPEAXI@Z 0000000140021e60     MainWnd.obj
 0002:00009e60       $unwind$__acrt_uninitialize_lowio 0000000140021e60     libucrt:ioinit.obj
 0002:00009e60       $unwind$??_Gbad_array_new_length@std@@UEAAPEAXI@Z 0000000140021e60     LIBCMT:throw_bad_alloc.obj
 0002:00009e60       $unwind$__acrt_execute_uninitializers 0000000140021e60     libucrt:shared_initialization.obj
 0002:00009e60       $unwind$??_Gbad_alloc@std@@UEAAPEAXI@Z 0000000140021e60     LIBCMT:throw_bad_alloc.obj
 0002:00009e60       $unwind$__acrt_fp_strflt_to_string 0000000140021e60     libucrt:_fptostr.obj
 0002:00009e60       $unwind$??_Gbad_cast@std@@UEAAPEAXI@Z 0000000140021e60     libvcruntime:rtti.obj
 0002:00009e60       $unwind$??_G__non_rtti_object@std@@UEAAPEAXI@Z 0000000140021e60     libvcruntime:rtti.obj
 0002:00009e6c       $unwind$?InitWindow@CMainWnd@@UEAAXXZ 0000000140021e6c     MainWnd.obj
 0002:00009e90       $stateUnwindMap$?InitWindow@CMainWnd@@UEAAXXZ 0000000140021e90     MainWnd.obj
 0002:00009e98       $ip2state$?InitWindow@CMainWnd@@UEAAXXZ 0000000140021e98     MainWnd.obj
 0002:00009eb0       $unwind$?Notify@CMainWnd@@UEAAXAEAUtagTNotifyUI@DuiLib@@@Z 0000000140021eb0     MainWnd.obj
 0002:00009ec8       $stateUnwindMap$?Notify@CMainWnd@@UEAAXAEAUtagTNotifyUI@DuiLib@@@Z 0000000140021ec8     MainWnd.obj
 0002:00009ed8       $ip2state$?Notify@CMainWnd@@UEAAXAEAUtagTNotifyUI@DuiLib@@@Z 0000000140021ed8     MainWnd.obj
 0002:00009f00       $unwind$?OnClick@CMainWnd@@UEAAXAEAUtagTNotifyUI@DuiLib@@@Z 0000000140021f00     MainWnd.obj
 0002:00009f20       $stateUnwindMap$?OnClick@CMainWnd@@UEAAXAEAUtagTNotifyUI@DuiLib@@@Z 0000000140021f20     MainWnd.obj
 0002:00009f28       $ip2state$?OnClick@CMainWnd@@UEAAXAEAUtagTNotifyUI@DuiLib@@@Z 0000000140021f28     MainWnd.obj
 0002:00009f40       $unwind$?HandleCustomMessage@CMainWnd@@UEAA_JI_K_JAEAH@Z 0000000140021f40     MainWnd.obj
 0002:00009f58       $unwind$?OnFinalMessage@CMainWnd@@EEAAXPEAUHWND__@@@Z 0000000140021f58     MainWnd.obj
 0002:00009f74       $stateUnwindMap$?OnFinalMessage@CMainWnd@@EEAAXPEAUHWND__@@@Z 0000000140021f74     MainWnd.obj
 0002:00009fa0       $ip2state$?OnFinalMessage@CMainWnd@@EEAAXPEAUHWND__@@@Z 0000000140021fa0     MainWnd.obj
 0002:00009fe0       $unwind$?type_case_s@?$output_processor@_WV?$string_output_adapter@_W@__crt_stdio_output@@V?$format_validation_base@_WV?$string_output_adapter@_W@__crt_stdio_output@@@2@@__crt_stdio_output@@AEAA_NXZ 0000000140021fe0     libucrt:output.obj
 0002:00009fe0       $unwind$__vcrt_InitializeCriticalSectionEx 0000000140021fe0     libvcruntime:winapi_downlevel.obj
 0002:00009fe0       $unwind$memcpy_s           0000000140021fe0     libucrt:cfout.obj
 0002:00009fe0       $unwind$?Copy2Clipboard@CMainWnd@@AEAAXPEAEKK@Z 0000000140021fe0     MainWnd.obj
 0002:00009fe0       $unwind$?type_case_n@?$output_processor@_WV?$string_output_adapter@_W@__crt_stdio_output@@V?$format_validation_base@_WV?$string_output_adapter@_W@__crt_stdio_output@@@2@@__crt_stdio_output@@AEAA_NXZ 0000000140021fe0     libucrt:output.obj
 0002:00009fe0       $unwind$?type_case_Z@?$output_processor@_WV?$string_output_adapter@_W@__crt_stdio_output@@V?$format_validation_base@_WV?$string_output_adapter@_W@__crt_stdio_output@@@2@@__crt_stdio_output@@AEAA_NXZ 0000000140021fe0     libucrt:output.obj
 0002:00009fe0       $unwind$??0_LocaleUpdate@@QEAA@QEAU__crt_locale_pointers@@@Z 0000000140021fe0     libucrt:output.obj
 0002:00009fe0       $unwind$?type_case_n@?$output_processor@DV?$string_output_adapter@D@__crt_stdio_output@@V?$format_validation_base@DV?$string_output_adapter@D@__crt_stdio_output@@@2@@__crt_stdio_output@@AEAA_NXZ 0000000140021fe0     libucrt:output.obj
 0002:00009fe0       $unwind$__acrt_InitializeCriticalSectionEx 0000000140021fe0     libucrt:winapi_thunks.obj
 0002:00009fe0       $unwind$?CatchTryBlock@__FrameHandler3@@SAPEBU_s_TryBlockMapEntry@@PEBU_s_FuncInfo@@H@Z 0000000140021fe0     libvcruntime:risctrnsctrl.obj
 0002:00009fe0       $unwind$??$common_lseek_nolock@_J@@YA_JH_JH@Z 0000000140021fe0     libucrt:lseek.obj
 0002:00009fe0       $unwind$?FrameUnwindToEmptyState@__FrameHandler3@@SAXPEA_KPEAU_xDISPATCHER_CONTEXT@@PEBU_s_FuncInfo@@@Z 0000000140021fe0     libvcruntime:risctrnsctrl.obj
 0002:00009fe0       $unwind$__vcrt_getptd_noexit 0000000140021fe0     libvcruntime:per_thread_data.obj
 0002:00009fe0       $unwind$_exception_enabled 0000000140021fe0     libucrt:libm_error.obj
 0002:00009fe0       $unwind$?free_crt_array_internal@@YAXQEAPEBX_K@Z 0000000140021fe0     libucrt:inittime.obj
 0002:00009fe0       $unwind$__acrt_getptd_noexit 0000000140021fe0     libucrt:per_thread_data.obj
 0002:00009fe0       $unwind$__acrt_execute_initializers 0000000140021fe0     libucrt:shared_initialization.obj
 0002:00009fe0       $unwind$__acrt_stdio_flush_nolock 0000000140021fe0     libucrt:fflush.obj
 0002:00009fe0       $unwind$__acrt_getptd      0000000140021fe0     libucrt:per_thread_data.obj
 0002:00009ff0       $unwind$?OnSelectChanged@CMainWnd@@AEAAXAEAUtagTNotifyUI@DuiLib@@@Z 0000000140021ff0     MainWnd.obj
 0002:0000a004       $stateUnwindMap$?OnShellcodeLoadMapFunsPath@CMainWnd@@AEAAXXZ 0000000140022004     MainWnd.obj
 0002:0000a004       $stateUnwindMap$?OnSelectChanged@CMainWnd@@AEAAXAEAUtagTNotifyUI@DuiLib@@@Z 0000000140022004     MainWnd.obj
 0002:0000a010       $ip2state$?OnSelectChanged@CMainWnd@@AEAAXAEAUtagTNotifyUI@DuiLib@@@Z 0000000140022010     MainWnd.obj
 0002:0000a028       $unwind$?OnCalcWinApiHash@CMainWnd@@AEAAXXZ 0000000140022028     MainWnd.obj
 0002:0000a04c       $stateUnwindMap$?OnCalcWinApiHash@CMainWnd@@AEAAXXZ 000000014002204c     MainWnd.obj
 0002:0000a058       $ip2state$?OnCalcWinApiHash@CMainWnd@@AEAAXXZ 0000000140022058     MainWnd.obj
 0002:0000a070       $unwind$?OnWideStr2DwordArry@CMainWnd@@AEAAXXZ 0000000140022070     MainWnd.obj
 0002:0000a098       $stateUnwindMap$?OnWideStr2DwordArry@CMainWnd@@AEAAXXZ 0000000140022098     MainWnd.obj
 0002:0000a0b0       $ip2state$?OnWideStr2DwordArry@CMainWnd@@AEAAXXZ 00000001400220b0     MainWnd.obj
 0002:0000a0e8       $unwind$?OnMultStr2DowrdArry@CMainWnd@@AEAAXXZ 00000001400220e8     MainWnd.obj
 0002:0000a110       $stateUnwindMap$?OnMultStr2DowrdArry@CMainWnd@@AEAAXXZ 0000000140022110     MainWnd.obj
 0002:0000a128       $ip2state$?OnMultStr2DowrdArry@CMainWnd@@AEAAXXZ 0000000140022128     MainWnd.obj
 0002:0000a160       $unwind$?OnStringCopyDest@CMainWnd@@AEAAXXZ 0000000140022160     MainWnd.obj
 0002:0000a180       $stateUnwindMap$?OnStringCopyDest@CMainWnd@@AEAAXXZ 0000000140022180     MainWnd.obj
 0002:0000a1b0       $ip2state$?OnStringCopyDest@CMainWnd@@AEAAXXZ 00000001400221b0     MainWnd.obj
 0002:0000a1f8       $unwind$?OnApiCopyHash@CMainWnd@@AEAAXXZ 00000001400221f8     MainWnd.obj
 0002:0000a218       $stateUnwindMap$?OnApiCopyHash@CMainWnd@@AEAAXXZ 0000000140022218     MainWnd.obj
 0002:0000a240       $ip2state$?OnApiCopyHash@CMainWnd@@AEAAXXZ 0000000140022240     MainWnd.obj
 0002:0000a280       $unwind$?OnShellcodeInjectExec@CMainWnd@@AEAAXXZ 0000000140022280     MainWnd.obj
 0002:0000a298       $unwind$?OnShellcodeDump@CMainWnd@@AEAAXXZ 0000000140022298     MainWnd.obj
 0002:0000a2b8       $stateUnwindMap$?OnShellcodeDump@CMainWnd@@AEAAXXZ 00000001400222b8     MainWnd.obj
 0002:0000a2c8       $ip2state$?OnShellcodeDump@CMainWnd@@AEAAXXZ 00000001400222c8     MainWnd.obj
 0002:0000a2e8       $unwind$?OnShellcodeLoadMapFunsPath@CMainWnd@@AEAAXXZ 00000001400222e8     MainWnd.obj
 0002:0000a300       $ip2state$?OnShellcodeLoadMapFunsPath@CMainWnd@@AEAAXXZ 0000000140022300     MainWnd.obj
 0002:0000a318       $unwind$?OnShellcodeReadMap@CMainWnd@@AEAAXXZ 0000000140022318     MainWnd.obj
 0002:0000a33c       $stateUnwindMap$?OnShellcodeReadMap@CMainWnd@@AEAAXXZ 000000014002233c     MainWnd.obj
 0002:0000a370       $ip2state$?OnShellcodeReadMap@CMainWnd@@AEAAXXZ 0000000140022370     MainWnd.obj
 0002:0000a3c0       $unwind$?fin$0@?0??update_thread_multibyte_data_internal@@YAPEAU__crt_multibyte_data@@QEAU__acrt_ptd@@QEAPEAU1@@Z@4HA 00000001400223c0     libucrt:mbctype.obj
 0002:0000a3c0       $unwind$?fin$0@?0???$?RV<lambda_886d6c58226a84441f68b9f2b8217b83>@@AEAV<lambda_ab61a845afdef5b7c387490eaf3616ee>@@V<lambda_f7f22ab5edc0698d5f6905b0d3f44752>@@@?$__crt_seh_guarded_call@X@@QEAAX$$QEAV<lambda_886d6c58226a84441f68b9f2b8217b83>@@AEAV<lambda_ab61a845afdef5b7c387490eaf3616ee>@@$$QEAV<lambda_f7f22ab5edc0698d5f6905b0d3f44752>@@@Z@4HA 00000001400223c0     libucrt:fflush.obj
 0002:0000a3c0       $unwind$?fin$0@?0???$?RV<lambda_751a882b2c74d4b022dec766aa51a29a>@@AEAV<lambda_628dfdc04ba53c8bfc02c9951375f3f5>@@V<lambda_f6c7be5f7998530c34de24c7437d6b54>@@@?$__crt_seh_guarded_call@H@@QEAAH$$QEAV<lambda_751a882b2c74d4b022dec766aa51a29a>@@AEAV<lambda_628dfdc04ba53c8bfc02c9951375f3f5>@@$$QEAV<lambda_f6c7be5f7998530c34de24c7437d6b54>@@@Z@4HA 00000001400223c0     libucrt:close.obj
 0002:0000a3c0       $unwind$?filt$0@?0??FrameUnwindToState@__FrameHandler3@@SAXPEA_KPEAU_xDISPATCHER_CONTEXT@@PEBU_s_FuncInfo@@H@Z@4HA 00000001400223c0     libvcruntime:frame.obj
 0002:0000a3c0       $unwind$_ctrlfp$filt$0     00000001400223c0     libucrt:fpctrl.obj
 0002:0000a3c0       $unwind$?filt$0@?0???R<lambda_6e4b09c48022b2350581041d5f6b0c4c>@@QEBA@XZ@4HA 00000001400223c0     libucrt:exit.obj
 0002:0000a3c0       $unwind$?fin$1@?0??FrameUnwindToState@__FrameHandler3@@SAXPEA_KPEAU_xDISPATCHER_CONTEXT@@PEBU_s_FuncInfo@@H@Z@4HA 00000001400223c0     libvcruntime:frame.obj
 0002:0000a3c0       $unwind$?dtor$4@?0??OnShellcodeReadMap@CMainWnd@@AEAAXXZ@4HA 00000001400223c0     MainWnd.obj
 0002:0000a3c0       $unwind$?fin$0@?0???$?RV<lambda_d80eeec6fff315bfe5c115232f3240e3>@@AEAV<lambda_6e4b09c48022b2350581041d5f6b0c4c>@@V<lambda_2358e3775559c9db80273638284d5e45>@@@?$__crt_seh_guarded_call@X@@QEAAX$$QEAV<lambda_d80eeec6fff315bfe5c115232f3240e3>@@AEAV<lambda_6e4b09c48022b2350581041d5f6b0c4c>@@$$QEAV<lambda_2358e3775559c9db80273638284d5e45>@@@Z@4HA 00000001400223c0     libucrt:exit.obj
 0002:0000a3c0       $unwind$__DestructExceptionObject$filt$0 00000001400223c0     libvcruntime:ehhelpers.obj
 0002:0000a3c0       $unwind$__acrt_initialize_lowio$fin$0 00000001400223c0     libucrt:ioinit.obj
 0002:0000a3c0       $unwind$?fin$0@?0???$?RV<lambda_a37b2b86f63e897a80ea819b0eb08c01>@@AEAV<lambda_38ce7e780aa69e748d6df282ebc68efe>@@V<lambda_99fb1378e971ab6e7edea83e3a7a83a2>@@@?$__crt_seh_guarded_call@H@@QEAAH$$QEAV<lambda_a37b2b86f63e897a80ea819b0eb08c01>@@AEAV<lambda_38ce7e780aa69e748d6df282ebc68efe>@@$$QEAV<lambda_99fb1378e971ab6e7edea83e3a7a83a2>@@@Z@4HA 00000001400223c0     libucrt:commit.obj
 0002:0000a3c0       $unwind$?fin$0@?0???$?RV<lambda_7777bce6b2f8c936911f934f8298dc43>@@AEAV<lambda_f03950bc5685219e0bcd2087efbe011e>@@V<lambda_3883c3dff614d5e0c5f61bb1ac94921c>@@@?$__crt_seh_guarded_call@H@@QEAAH$$QEAV<lambda_7777bce6b2f8c936911f934f8298dc43>@@AEAV<lambda_f03950bc5685219e0bcd2087efbe011e>@@$$QEAV<lambda_3883c3dff614d5e0c5f61bb1ac94921c>@@@Z@4HA 00000001400223c0     libucrt:onexit.obj
 0002:0000a3c0       $unwind$?fin$0@?0???$?RV<lambda_638799b9deba96c50f710eeac98168cd>@@AEAV<lambda_22ebabd17bc4fa466a2aca6d8deb888d>@@V<lambda_a6f7d7db0129f75315ebf26d50c089f1>@@@?$__crt_seh_guarded_call@H@@QEAAH$$QEAV<lambda_638799b9deba96c50f710eeac98168cd>@@AEAV<lambda_22ebabd17bc4fa466a2aca6d8deb888d>@@$$QEAV<lambda_a6f7d7db0129f75315ebf26d50c089f1>@@@Z@4HA 00000001400223c0     libucrt:onexit.obj
 0002:0000a3c0       $unwind$?fin$0@?0???$?RV<lambda_410d79af7f07d98d83a3f525b3859a53>@@AEAV<lambda_3e16ef9562a7dcce91392c22ab16ea36>@@V<lambda_38119f0e861e05405d8a144b9b982f0a>@@@?$__crt_seh_guarded_call@X@@QEAAX$$QEAV<lambda_410d79af7f07d98d83a3f525b3859a53>@@AEAV<lambda_3e16ef9562a7dcce91392c22ab16ea36>@@$$QEAV<lambda_38119f0e861e05405d8a144b9b982f0a>@@@Z@4HA 00000001400223c0     libucrt:wsetlocale.obj
 0002:0000a3c0       $unwind$?fin$0@?0???$?RV<lambda_efdfa57d1f175319df784efa44bb7b81>@@AEAV<lambda_5f0a4c1567f8adc6734073e5d1e1b35c>@@V<lambda_2e8a7d3640ea6ccb4c2413664c2db6fd>@@@?$__crt_seh_guarded_call@X@@QEAAX$$QEAV<lambda_efdfa57d1f175319df784efa44bb7b81>@@AEAV<lambda_5f0a4c1567f8adc6734073e5d1e1b35c>@@$$QEAV<lambda_2e8a7d3640ea6ccb4c2413664c2db6fd>@@@Z@4HA 00000001400223c0     libucrt:mbctype.obj
 0002:0000a3c0       $unwind$?filt$0@?0??CxxCallCatchBlock@__FrameHandler3@@SAPEAXPEAU_EXCEPTION_RECORD@@@Z@4HA 00000001400223c0     libvcruntime:frame.obj
 0002:0000a3c0       $unwind$raise$fin$0        00000001400223c0     libucrt:signal.obj
 0002:0000a3c0       $unwind$?fin$0@?0???$?RV<lambda_842d9ff0dc9ef11c61343bbaebe7f885>@@AEAV<lambda_c5860995281e5c4ce005b3de8f5874ee>@@V<lambda_d90129c13df834fdcbf8d2b88dafcf2d>@@@?$__crt_seh_guarded_call@X@@QEAAX$$QEAV<lambda_842d9ff0dc9ef11c61343bbaebe7f885>@@AEAV<lambda_c5860995281e5c4ce005b3de8f5874ee>@@$$QEAV<lambda_d90129c13df834fdcbf8d2b88dafcf2d>@@@Z@4HA 00000001400223c0     libucrt:fflush.obj
 0002:0000a3c0       $unwind$_IsNonwritableInCurrentImage$filt$0 00000001400223c0     LIBCMT:pesect.obj
 0002:0000a3c0       $unwind$?fin$0@?0???$?RV<lambda_450d765d439847d4c735a33c368b5fc0>@@AEAV<lambda_44731a7d0e6d81c3e6aa82d741081786>@@V<lambda_601a2a7da3b7a96e9554ac7215c4b07c>@@@?$__crt_seh_guarded_call@P6AXH@Z@@QEAAP6AXH@Z$$QEAV<lambda_450d765d439847d4c735a33c368b5fc0>@@AEAV<lambda_44731a7d0e6d81c3e6aa82d741081786>@@$$QEAV<lambda_601a2a7da3b7a96e9554ac7215c4b07c>@@@Z@4HA 00000001400223c0     libucrt:signal.obj
 0002:0000a3c0       $unwind$__acrt_update_thread_locale_data$fin$0 00000001400223c0     libucrt:locale_refcounting.obj
 0002:0000a3c0       $unwind$?dtor$1@?0??OnShellcodeRandomFuns@CMainWnd@@AEAAXXZ@4HA 00000001400223c0     MainWnd.obj
 0002:0000a3c0       $unwind$_write$fin$0       00000001400223c0     libucrt:write.obj
 0002:0000a3c0       $unwind$fclose$fin$0       00000001400223c0     libucrt:fclose.obj
 0002:0000a3c0       $unwind$_query_new_handler$fin$0 00000001400223c0     libucrt:new_handler.obj
 0002:0000a3c0       $unwind$?fin$0@?0???$?RV<lambda_0ae27a3a962d80f24befdcbee591983d>@@AEAV<lambda_8d0ee55de4b1038c4002e0adecdf1839>@@V<lambda_dc504788e8f1664fe9b84e20bfb512f2>@@@?$__crt_seh_guarded_call@X@@QEAAX$$QEAV<lambda_0ae27a3a962d80f24befdcbee591983d>@@AEAV<lambda_8d0ee55de4b1038c4002e0adecdf1839>@@$$QEAV<lambda_dc504788e8f1664fe9b84e20bfb512f2>@@@Z@4HA 00000001400223c0     libucrt:per_thread_data.obj
 0002:0000a3c0       $unwind$?filt$0@?0??__scrt_common_main_seh@@YAHXZ@4HA 00000001400223c0     LIBCMT:exe_wwinmain.obj
 0002:0000a3c0       $unwind$?fin$0@?0???$?RV<lambda_aa87e3671a710a21b5dc78c0bdf72e11>@@AEAV<lambda_92619d2358a28f41a33ba319515a20b9>@@V<lambda_6992ecaafeb10aed2b74cb1fae11a551>@@@?$__crt_seh_guarded_call@X@@QEAAX$$QEAV<lambda_aa87e3671a710a21b5dc78c0bdf72e11>@@AEAV<lambda_92619d2358a28f41a33ba319515a20b9>@@$$QEAV<lambda_6992ecaafeb10aed2b74cb1fae11a551>@@@Z@4HA 00000001400223c0     libucrt:per_thread_data.obj
 0002:0000a3c0       $unwind$?fin$0@?0???$?RV<lambda_f2e299630e499de9f9a165e60fcd3db5>@@AEAV<lambda_2ae9d31cdba2644fcbeaf08da7c24588>@@V<lambda_40d01ff24d0e7b3814fdbdcee8eab3c7>@@@?$__crt_seh_guarded_call@X@@QEAAX$$QEAV<lambda_f2e299630e499de9f9a165e60fcd3db5>@@AEAV<lambda_2ae9d31cdba2644fcbeaf08da7c24588>@@$$QEAV<lambda_40d01ff24d0e7b3814fdbdcee8eab3c7>@@@Z@4HA 00000001400223c0     libucrt:per_thread_data.obj
 0002:0000a3c0       $unwind$?fin$0@?0???$?RV<lambda_2d41944a1d46af3157314b8a01080d33>@@AEAV<lambda_8f455de75cd7d7f24b4096f044d8b9e6>@@V<lambda_aa500f224e6afead328df44964fe2772>@@@?$__crt_seh_guarded_call@X@@QEAAX$$QEAV<lambda_2d41944a1d46af3157314b8a01080d33>@@AEAV<lambda_8f455de75cd7d7f24b4096f044d8b9e6>@@$$QEAV<lambda_aa500f224e6afead328df44964fe2772>@@@Z@4HA 00000001400223c0     libucrt:per_thread_data.obj
 0002:0000a3c0       $unwind$_fcloseall$fin$0   00000001400223c0     libucrt:closeall.obj
 0002:0000a3c0       $unwind$__acrt_lowio_ensure_fh_exists$fin$0 00000001400223c0     libucrt:osfinfo.obj
 0002:0000a3c8       $unwind$?OnShellcodeRandomFuns@CMainWnd@@AEAAXXZ 00000001400223c8     MainWnd.obj
 0002:0000a3f0       $stateUnwindMap$?OnShellcodeRandomFuns@CMainWnd@@AEAAXXZ 00000001400223f0     MainWnd.obj
 0002:0000a400       $ip2state$?OnShellcodeRandomFuns@CMainWnd@@AEAAXXZ 0000000140022400     MainWnd.obj
 0002:0000a428       $unwind$?OnShellcodeWriteFuns@CMainWnd@@AEAAXXZ 0000000140022428     MainWnd.obj
 0002:0000a44c       $stateUnwindMap$?OnShellcodeWriteFuns@CMainWnd@@AEAAXXZ 000000014002244c     MainWnd.obj
 0002:0000a468       $ip2state$?OnShellcodeWriteFuns@CMainWnd@@AEAAXXZ 0000000140022468     MainWnd.obj
 0002:0000a498       $unwind$?OnTestExecSc@CMainWnd@@AEAAXXZ 0000000140022498     MainWnd.obj
 0002:0000a4b8       $stateUnwindMap$?OnTestExecSc@CMainWnd@@AEAAXXZ 00000001400224b8     MainWnd.obj
 0002:0000a4d0       $ip2state$?OnTestExecSc@CMainWnd@@AEAAXXZ 00000001400224d0     MainWnd.obj
 0002:0000a508       $unwind$sprintf_s          0000000140022508     MainWnd.obj
 0002:0000a518       $unwind$_snwprintf_s       0000000140022518     MainWnd.obj
 0002:0000a528       $unwind$?ReadBufferFromFile@@YAPEAEPEA_WPEAK@Z 0000000140022528     SCXHelper.obj
 0002:0000a538       $unwind$?BrowseFile@@YAHPEA_W0@Z 0000000140022538     SCXHelper.obj
 0002:0000a540       $unwind$?__scrt_common_main_seh@@YAHXZ 0000000140022540     LIBCMT:exe_wwinmain.obj
 0002:0000a574       $unwind$?__scrt_throw_std_bad_array_new_length@@YAXXZ 0000000140022574     LIBCMT:throw_bad_alloc.obj
 0002:0000a574       $unwind$?__scrt_throw_std_bad_alloc@@YAXXZ 0000000140022574     LIBCMT:throw_bad_alloc.obj
 0002:0000a574       $unwind$_raise_exc         0000000140022574     libucrt:fpexcept.obj
 0002:0000a57c       $unwind$__scrt_is_nonwritable_in_current_image 000000014002257c     LIBCMT:utility.obj
 0002:0000a59c       $unwind$__scrt_is_nonwritable_in_current_image$filt$0 000000014002259c     LIBCMT:utility.obj
 0002:0000a5a4       $unwind$_isleadbyte_l      00000001400225a4     libucrt:_wctype.obj
 0002:0000a5a4       $unwind$?getSystemCP@@YAHH@Z 00000001400225a4     libucrt:mbctype.obj
 0002:0000a5a4       $unwind$__dcrt_lowio_ensure_console_output_initialized 00000001400225a4     libucrt:initcon.obj
 0002:0000a5a4       $unwind$__scrt_initialize_onexit_tables 00000001400225a4     LIBCMT:utility.obj
 0002:0000a5ac       $unwind$__security_init_cookie 00000001400225ac     LIBCMT:gs_support.obj
 0002:0000a5b8       $unwind$__scrt_get_show_window_mode 00000001400225b8     LIBCMT:utility_desktop.obj
 0002:0000a5c0       $unwind$__scrt_fastfail    00000001400225c0     LIBCMT:utility_desktop.obj
 0002:0000a5d0       $unwind$__isa_available_init 00000001400225d0     LIBCMT:cpu_disp.obj
 0002:0000a5e8       $xdatasym                  00000001400225e8     LIBCMT:guard_dispatch.obj
 0002:0000a5ec       $unwind$?GetEstablisherFrame@__FrameHandler3@@SAPEA_KPEA_KPEAU_xDISPATCHER_CONTEXT@@PEBU_s_FuncInfo@@0@Z 00000001400225ec     libvcruntime:risctrnsctrl.obj
 0002:0000a604       $unwind$?UnwindNestedFrames@__FrameHandler3@@SAXPEA_KPEAUEHExceptionRecord@@PEAU_CONTEXT@@0PEAXPEBU_s_FuncInfo@@HHPEBU_s_HandlerType@@PEAU_xDISPATCHER_CONTEXT@@E@Z 0000000140022604     libvcruntime:risctrnsctrl.obj
 0002:0000a618       $unwind$?GetRangeOfTrysToCheck@__FrameHandler3@@SA?AU?$pair@Viterator@TryBlockMap@__FrameHandler3@@V123@@std@@AEAVTryBlockMap@1@HH@Z 0000000140022618     libvcruntime:risctrnsctrl.obj
 0002:0000a630       $unwind$__CxxFrameHandler3 0000000140022630     libvcruntime:risctrnsctrl.obj
 0002:0000a640       $unwind$??$_CallSETranslator@V__FrameHandler3@@@@YAHPEAUEHExceptionRecord@@PEA_KPEAU_CONTEXT@@PEAU_xDISPATCHER_CONTEXT@@PEBU_s_FuncInfo@@K1@Z 0000000140022640     libvcruntime:risctrnsctrl.obj
 0002:0000a660       $unwind$?filt$0@?0???$_CallSETranslator@V__FrameHandler3@@@@YAHPEAUEHExceptionRecord@@PEA_KPEAU_CONTEXT@@PEAU_xDISPATCHER_CONTEXT@@PEBU_s_FuncInfo@@K1@Z@4HA 0000000140022660     libvcruntime:risctrnsctrl.obj
 0002:0000a66c       $unwind$__DestructExceptionObject 000000014002266c     libvcruntime:ehhelpers.obj
 0002:0000a68c       $unwind$__C_specific_handler 000000014002268c     libvcruntime:riscchandler.obj
 0002:0000a6a8       $unwind$__std_exception_copy 00000001400226a8     libvcruntime:std_exception.obj
 0002:0000a6a8       $unwind$_free_osfhnd       00000001400226a8     libucrt:osfinfo.obj
 0002:0000a6bc       $unwind$_CxxThrowException 00000001400226bc     libvcruntime:throw.obj
 0002:0000a6d0       $xdatasym                  00000001400226d0     libvcruntime:memset.obj
 0002:0000a6e0       $unwind$?FrameUnwindToState@__FrameHandler3@@SAXPEA_KPEAU_xDISPATCHER_CONTEXT@@PEBU_s_FuncInfo@@H@Z 00000001400226e0     libvcruntime:frame.obj
 0002:0000a72c       $unwind$_ischartype_l      000000014002272c     libucrt:atox.obj
 0002:0000a72c       $unwind$_seh_filter_exe    000000014002272c     libucrt:exception_filter.obj
 0002:0000a72c       $unwind$?Is_bad_exception_allowed@@YAEPEBU_s_ESTypeList@@@Z 000000014002272c     libvcruntime:frame.obj
 0002:0000a72c       $unwind$__acrt_free_locale 000000014002272c     libucrt:locale_refcounting.obj
 0002:0000a72c       $unwind$?setSBCS@@YAXPEAU__crt_multibyte_data@@@Z 000000014002272c     libucrt:mbctype.obj
 0002:0000a72c       $unwind$__acrt_lowio_create_handle_array 000000014002272c     libucrt:osfinfo.obj
 0002:0000a72c       $unwind$__dcrt_get_wide_environment_from_os 000000014002272c     libucrt:get_environment_from_os.obj
 0002:0000a72c       $unwind$?GetHandlerSearchState@__FrameHandler3@@SAHPEA_KPEAU_xDISPATCHER_CONTEXT@@PEBU_s_FuncInfo@@@Z 000000014002272c     libvcruntime:frame.obj
 0002:0000a72c       $unwind$??$ensure_buffer_is_big_enough@D@formatting_buffer@__crt_stdio_output@@QEAA_N_K@Z 000000014002272c     libucrt:output.obj
 0002:0000a72c       $unwind$_initterm          000000014002272c     libucrt:initterm.obj
 0002:0000a72c       $unwind$??$ensure_buffer_is_big_enough@_W@formatting_buffer@__crt_stdio_output@@QEAA_N_K@Z 000000014002272c     libucrt:output.obj
 0002:0000a72c       $unwind$_recalloc_base     000000014002272c     libucrt:recalloc.obj
 0002:0000a740       $unwind$?CxxCallCatchBlock@__FrameHandler3@@SAPEAXPEAU_EXCEPTION_RECORD@@@Z 0000000140022740     libvcruntime:frame.obj
 0002:0000a77c       $unwind$?fin$1@?0??CxxCallCatchBlock@__FrameHandler3@@SAPEAXPEAU_EXCEPTION_RECORD@@@Z@4HA 000000014002277c     libvcruntime:frame.obj
 0002:0000a788       $unwind$?try_get_function@@YAPEAXW4function_id@?A0xbfd18cd1@@QEBDQEBW4module_id@2@2@Z 0000000140022788     libvcruntime:winapi_downlevel.obj
 0002:0000a788       $unwind$?try_get_function@@YAPEAXW4function_id@?A0x391cf84c@@QEBDQEBW4module_id@2@2@Z 0000000140022788     libucrt:winapi_thunks.obj
 0002:0000a788       $unwind$?IsInExceptionSpec@@YAEPEAUEHExceptionRecord@@PEBU_s_ESTypeList@@@Z 0000000140022788     libvcruntime:frame.obj
 0002:0000a7a4       $unwind$??$__InternalCxxFrameHandler@V__FrameHandler3@@@@YA?AW4_EXCEPTION_DISPOSITION@@PEAUEHExceptionRecord@@PEA_KPEAU_CONTEXT@@PEAU_xDISPATCHER_CONTEXT@@PEBU_s_FuncInfo@@H1E@Z 00000001400227a4     libvcruntime:frame.obj
 0002:0000a7bc       $unwind$??$TypeMatchHelper@V__FrameHandler3@@@@YAHPEBU_s_HandlerType@@PEBU_s_CatchableType@@PEBU_s_ThrowInfo@@@Z 00000001400227bc     libvcruntime:frame.obj
 0002:0000a7bc       $unwind$__acrt_initialize_stdio 00000001400227bc     libucrt:_file.obj
 0002:0000a7bc       $unwind$?initialize_stdio_handles_nolock@@YAXXZ 00000001400227bc     libucrt:ioinit.obj
 0002:0000a7d4       $unwind$??$BuildCatchObjectHelperInternal@V__FrameHandler3@@@@YAHPEAUEHExceptionRecord@@PEAXPEBU_s_HandlerType@@PEBU_s_CatchableType@@@Z 00000001400227d4     libvcruntime:frame.obj
 0002:0000a814       $unwind$??$BuildCatchObjectInternal@V__FrameHandler3@@@@YAXPEAUEHExceptionRecord@@PEAXPEBU_s_HandlerType@@PEBU_s_CatchableType@@@Z 0000000140022814     libvcruntime:frame.obj
 0002:0000a840       $unwind$??$FindHandler@V__FrameHandler3@@@@YAXPEAUEHExceptionRecord@@PEA_KPEAU_CONTEXT@@PEAU_xDISPATCHER_CONTEXT@@PEBU_s_FuncInfo@@EH1@Z 0000000140022840     libvcruntime:frame.obj
 0002:0000a85c       $unwind$??$CatchIt@V__FrameHandler3@@@@YAXPEAUEHExceptionRecord@@PEA_KPEAU_CONTEXT@@PEAU_xDISPATCHER_CONTEXT@@PEBU_s_FuncInfo@@PEBU_s_HandlerType@@PEBU_s_CatchableType@@PEBU_s_TryBlockMapEntry@@H1EE@Z 000000014002285c     libvcruntime:frame.obj
 0002:0000a874       $unwind$??$FindHandlerForForeignException@V__FrameHandler3@@@@YAXPEAUEHExceptionRecord@@PEA_KPEAU_CONTEXT@@PEAU_xDISPATCHER_CONTEXT@@PEBU_s_FuncInfo@@HH1@Z 0000000140022874     libvcruntime:frame.obj
 0002:0000a890       $xdatasym                  0000000140022890     libvcruntime:notify.obj
 0002:0000a89c       $unwind$__acrt_initialize_winapi_thunks 000000014002289c     libucrt:winapi_thunks.obj
 0002:0000a89c       $unwind$__vcrt_initialize_winapi_thunks 000000014002289c     libvcruntime:winapi_downlevel.obj
 0002:0000a8a4       $unwind$__vcrt_uninitialize_winapi_thunks 00000001400228a4     libvcruntime:winapi_downlevel.obj
 0002:0000a8b0       $xdatasym                  00000001400228b0     libvcruntime:handlers.obj
 0002:0000a8c0       $xdatasym                  00000001400228c0     libvcruntime:memcpy.obj
 0002:0000a8d0       $unwind$__stdio_common_vsnwprintf_s 00000001400228d0     libucrt:output.obj
 0002:0000a8ec       $unwind$__stdio_common_vsprintf_s 00000001400228ec     libucrt:output.obj
 0002:0000a8ec       $unwind$??$common_xtox_s@K_W@@YAHKQEA_W_KI_N@Z 00000001400228ec     libucrt:xtoa.obj
 0002:0000a8ec       $unwind$?__mbrtowc_utf8@__crt_mbstring@@YA_KPEA_WPEBD_KPEAU_Mbstatet@@@Z 00000001400228ec     libucrt:mbrtowc.obj
 0002:0000a8f4       $unwind$?write_string@?$string_output_adapter@D@__crt_stdio_output@@QEBAXQEBDHQEAHAEAV__crt_deferred_errno_cache@@@Z 00000001400228f4     libucrt:output.obj
 0002:0000a90c       $unwind$?write_string@?$string_output_adapter@_W@__crt_stdio_output@@QEBAXQEB_WHQEAHAEAV__crt_deferred_errno_cache@@@Z 000000014002290c     libucrt:output.obj
 0002:0000a924       $unwind$??$common_vsprintf@Vformat_validation_base@__crt_stdio_output@@D@@YAH_KQEAD0QEBDQEAU__crt_locale_pointers@@1@Z 0000000140022924     libucrt:output.obj
 0002:0000a924       $unwind$??$common_vsprintf@Vformat_validation_base@__crt_stdio_output@@_W@@YAH_KQEA_W0QEB_WQEAU__crt_locale_pointers@@QEAD@Z 0000000140022924     libucrt:output.obj
 0002:0000a944       $unwind$??$write_multiple_characters@V?$string_output_adapter@_W@__crt_stdio_output@@D@__crt_stdio_output@@YAXAEBV?$string_output_adapter@_W@0@DHQEAH@Z 0000000140022944     libucrt:output.obj
 0002:0000a944       $unwind$??$write_multiple_characters@V?$string_output_adapter@D@__crt_stdio_output@@D@__crt_stdio_output@@YAXAEBV?$string_output_adapter@D@0@DHQEAH@Z 0000000140022944     libucrt:output.obj
 0002:0000a950       $unwind$?process@?$output_processor@DV?$string_output_adapter@D@__crt_stdio_output@@V?$format_validation_base@DV?$string_output_adapter@D@__crt_stdio_output@@@2@@__crt_stdio_output@@QEAAHXZ 0000000140022950     libucrt:output.obj
 0002:0000a964       $unwind$?parse_int_from_format_string@?$output_processor@DV?$string_output_adapter@D@__crt_stdio_output@@V?$format_validation_base@DV?$string_output_adapter@D@__crt_stdio_output@@@2@@__crt_stdio_output@@AEAA_NQEAH@Z 0000000140022964     libucrt:output.obj
 0002:0000a964       $unwind$?process@?$output_processor@_WV?$string_output_adapter@_W@__crt_stdio_output@@V?$format_validation_base@_WV?$string_output_adapter@_W@__crt_stdio_output@@@2@@__crt_stdio_output@@QEAAHXZ 0000000140022964     libucrt:output.obj
 0002:0000a978       $unwind$?state_case_type@?$output_processor@DV?$string_output_adapter@D@__crt_stdio_output@@V?$format_validation_base@DV?$string_output_adapter@D@__crt_stdio_output@@@2@@__crt_stdio_output@@AEAA_NXZ 0000000140022978     libucrt:output.obj
 0002:0000a990       $unwind$?type_case_a@?$output_processor@DV?$string_output_adapter@D@__crt_stdio_output@@V?$format_validation_base@DV?$string_output_adapter@D@__crt_stdio_output@@@2@@__crt_stdio_output@@AEAA_NXZ 0000000140022990     libucrt:output.obj
 0002:0000a99c       $unwind$??R<lambda_f03950bc5685219e0bcd2087efbe011e>@@QEBAHXZ 000000014002299c     libucrt:onexit.obj
 0002:0000a99c       $unwind$__acrt_DownlevelLocaleNameToLCID 000000014002299c     libucrt:lcidtoname_downlevel.obj
 0002:0000a99c       $unwind$?type_case_integer@?$output_processor@DV?$string_output_adapter@D@__crt_stdio_output@@V?$format_validation_base@DV?$string_output_adapter@D@__crt_stdio_output@@@2@@__crt_stdio_output@@AEAA_NI_N@Z 000000014002299c     libucrt:output.obj
 0002:0000a99c       $unwind$?type_case_integer@?$output_processor@_WV?$string_output_adapter@_W@__crt_stdio_output@@V?$format_validation_base@_WV?$string_output_adapter@_W@__crt_stdio_output@@@2@@__crt_stdio_output@@AEAA_NI_N@Z 000000014002299c     libucrt:output.obj
 0002:0000a99c       $unwind$??$common_xtox@K_W@@YAHKQEA_W_KI_N@Z 000000014002299c     libucrt:xtoa.obj
 0002:0000a9b4       $unwind$?write_stored_string_tchar@?$output_processor@DV?$string_output_adapter@D@__crt_stdio_output@@V?$format_validation_base@DV?$string_output_adapter@D@__crt_stdio_output@@@2@@__crt_stdio_output@@AEAA_ND@Z 00000001400229b4     libucrt:output.obj
 0002:0000a9cc       $unwind$?parse_int_from_format_string@?$output_processor@_WV?$string_output_adapter@_W@__crt_stdio_output@@V?$format_validation_base@_WV?$string_output_adapter@_W@__crt_stdio_output@@@2@@__crt_stdio_output@@AEAA_NQEAH@Z 00000001400229cc     libucrt:output.obj
 0002:0000a9e0       $unwind$?state_case_type@?$output_processor@_WV?$string_output_adapter@_W@__crt_stdio_output@@V?$format_validation_base@_WV?$string_output_adapter@_W@__crt_stdio_output@@@2@@__crt_stdio_output@@AEAA_NXZ 00000001400229e0     libucrt:output.obj
 0002:0000aa04       $unwind$?type_case_c_tchar@?$output_processor@_WV?$string_output_adapter@_W@__crt_stdio_output@@V?$format_validation_base@_WV?$string_output_adapter@_W@__crt_stdio_output@@@2@@__crt_stdio_output@@AEAA_N_W@Z 0000000140022a04     libucrt:output.obj
 0002:0000aa14       $unwind$?type_case_a@?$output_processor@_WV?$string_output_adapter@_W@__crt_stdio_output@@V?$format_validation_base@_WV?$string_output_adapter@_W@__crt_stdio_output@@@2@@__crt_stdio_output@@AEAA_NXZ 0000000140022a14     libucrt:output.obj
 0002:0000aa24       $unwind$?write_stored_string_tchar@?$output_processor@_WV?$string_output_adapter@_W@__crt_stdio_output@@V?$format_validation_base@_WV?$string_output_adapter@_W@__crt_stdio_output@@@2@@__crt_stdio_output@@AEAA_N_W@Z 0000000140022a24     libucrt:output.obj
 0002:0000aa38       $unwind$??$type_case_integer_parse_into_buffer@_K@?$output_processor@_WV?$string_output_adapter@_W@__crt_stdio_output@@V?$format_validation_base@_WV?$string_output_adapter@_W@__crt_stdio_output@@@2@@__crt_stdio_output@@AEAAX_KI_N@Z 0000000140022a38     libucrt:output.obj
 0002:0000aa38       $unwind$??$type_case_integer_parse_into_buffer@_K@?$output_processor@DV?$string_output_adapter@D@__crt_stdio_output@@V?$format_validation_base@DV?$string_output_adapter@D@__crt_stdio_output@@@2@@__crt_stdio_output@@AEAAX_KI_N@Z 0000000140022a38     libucrt:output.obj
 0002:0000aa38       $unwind$??$type_case_integer_parse_into_buffer@I@?$output_processor@_WV?$string_output_adapter@_W@__crt_stdio_output@@V?$format_validation_base@_WV?$string_output_adapter@_W@__crt_stdio_output@@@2@@__crt_stdio_output@@AEAAXII_N@Z 0000000140022a38     libucrt:output.obj
 0002:0000aa38       $unwind$??$type_case_integer_parse_into_buffer@I@?$output_processor@DV?$string_output_adapter@D@__crt_stdio_output@@V?$format_validation_base@DV?$string_output_adapter@D@__crt_stdio_output@@@2@@__crt_stdio_output@@AEAAXII_N@Z 0000000140022a38     libucrt:output.obj
 0002:0000aa40       $unwind$_invalid_parameter_noinfo 0000000140022a40     libucrt:invalid_parameter.obj
 0002:0000aa40       $unwind$strtol             0000000140022a40     libucrt:strtox.obj
 0002:0000aa40       $unwind$_wtoi              0000000140022a40     libucrt:atox.obj
 0002:0000aa40       $unwind$_log10_special     0000000140022a40     libucrt:log_special.obj
 0002:0000aa40       $unwind$wcstol             0000000140022a40     libucrt:strtox.obj
 0002:0000aa40       $unwind$wctomb_s           0000000140022a40     libucrt:wctomb.obj
 0002:0000aa40       $unwind$_itow_s            0000000140022a40     libucrt:xtoa.obj
 0002:0000aa48       $unwind$??$parse_integer@KV?$c_string_character_source@D@__crt_strtox@@@__crt_strtox@@YAKQEAU__crt_locale_pointers@@V?$c_string_character_source@D@0@H_N@Z 0000000140022a48     libucrt:atox.obj
 0002:0000aa64       $unwind$??$parse_integer@KV?$c_string_character_source@_W@__crt_strtox@@@__crt_strtox@@YAKQEAU__crt_locale_pointers@@V?$c_string_character_source@_W@0@H_N@Z 0000000140022a64     libucrt:atox.obj
 0002:0000aa7c       $unwind$_query_new_handler 0000000140022a7c     libucrt:new_handler.obj
 0002:0000aa9c       $unwind$_configure_wide_argv 0000000140022a9c     libucrt:argv_parsing.obj
 0002:0000aab0       $unwind$??$parse_command_line@_W@@YAXPEA_WPEAPEA_W0PEA_K2@Z 0000000140022ab0     libucrt:argv_parsing.obj
 0002:0000aac8       $unwind$??$free_environment@D@@YAXQEAPEAD@Z 0000000140022ac8     libucrt:environment_initialization.obj
 0002:0000aac8       $unwind$??$free_environment@_W@@YAXQEAPEA_W@Z 0000000140022ac8     libucrt:environment_initialization.obj
 0002:0000aad4       $unwind$??$create_environment@_W@@YAQEAPEA_WQEA_W@Z 0000000140022ad4     libucrt:environment_initialization.obj
 0002:0000aaec       $unwind$?common_exit@@YAXHW4_crt_exit_cleanup_mode@@W4_crt_exit_return_mode@@@Z 0000000140022aec     libucrt:exit.obj
 0002:0000aaf8       $unwind$??R<lambda_6e4b09c48022b2350581041d5f6b0c4c>@@QEBA@XZ 0000000140022af8     libucrt:exit.obj
 0002:0000ab18       $unwind$??$?RV<lambda_d80eeec6fff315bfe5c115232f3240e3>@@AEAV<lambda_6e4b09c48022b2350581041d5f6b0c4c>@@V<lambda_2358e3775559c9db80273638284d5e45>@@@?$__crt_seh_guarded_call@X@@QEAAX$$QEAV<lambda_d80eeec6fff315bfe5c115232f3240e3>@@AEAV<lambda_6e4b09c48022b2350581041d5f6b0c4c>@@$$QEAV<lambda_2358e3775559c9db80273638284d5e45>@@@Z 0000000140022b18     libucrt:exit.obj
 0002:0000ab3c       $unwind$__acrt_uninitialize_locale 0000000140022b3c     libucrt:wsetlocale.obj
 0002:0000ab3c       $unwind$__acrt_get_sigabrt_handler 0000000140022b3c     libucrt:signal.obj
 0002:0000ab44       $unwind$??$?RV<lambda_410d79af7f07d98d83a3f525b3859a53>@@AEAV<lambda_3e16ef9562a7dcce91392c22ab16ea36>@@V<lambda_38119f0e861e05405d8a144b9b982f0a>@@@?$__crt_seh_guarded_call@X@@QEAAX$$QEAV<lambda_410d79af7f07d98d83a3f525b3859a53>@@AEAV<lambda_3e16ef9562a7dcce91392c22ab16ea36>@@$$QEAV<lambda_38119f0e861e05405d8a144b9b982f0a>@@@Z 0000000140022b44     libucrt:wsetlocale.obj
 0002:0000ab6c       $unwind$_register_onexit_function 0000000140022b6c     libucrt:onexit.obj
 0002:0000ab74       $unwind$_execute_onexit_table 0000000140022b74     libucrt:onexit.obj
 0002:0000ab7c       $unwind$??R<lambda_22ebabd17bc4fa466a2aca6d8deb888d>@@QEBAHXZ 0000000140022b7c     libucrt:onexit.obj
 0002:0000ab94       $unwind$??$?RV<lambda_638799b9deba96c50f710eeac98168cd>@@AEAV<lambda_22ebabd17bc4fa466a2aca6d8deb888d>@@V<lambda_a6f7d7db0129f75315ebf26d50c089f1>@@@?$__crt_seh_guarded_call@H@@QEAAH$$QEAV<lambda_638799b9deba96c50f710eeac98168cd>@@AEAV<lambda_22ebabd17bc4fa466a2aca6d8deb888d>@@$$QEAV<lambda_a6f7d7db0129f75315ebf26d50c089f1>@@@Z 0000000140022b94     libucrt:onexit.obj
 0002:0000abb8       $unwind$??$?RV<lambda_7777bce6b2f8c936911f934f8298dc43>@@AEAV<lambda_f03950bc5685219e0bcd2087efbe011e>@@V<lambda_3883c3dff614d5e0c5f61bb1ac94921c>@@@?$__crt_seh_guarded_call@H@@QEAAH$$QEAV<lambda_7777bce6b2f8c936911f934f8298dc43>@@AEAV<lambda_f03950bc5685219e0bcd2087efbe011e>@@$$QEAV<lambda_3883c3dff614d5e0c5f61bb1ac94921c>@@@Z 0000000140022bb8     libucrt:onexit.obj
 0002:0000abdc       $unwind$terminate          0000000140022bdc     libucrt:terminate.obj
 0002:0000abfc       $unwind$_wcsupr_s_l        0000000140022bfc     libucrt:wcsupr.obj
 0002:0000ac08       $unwind$?_wcsupr_s_l_stat@@YAHQEA_W_KQEAU__crt_locale_pointers@@@Z 0000000140022c08     libucrt:wcsupr.obj
 0002:0000ac30       $xdatasym                  0000000140022c30     libucrt:strncmp.obj
 0002:0000ac34       $unwind$__acrt_call_reportfault 0000000140022c34     libucrt:invalid_parameter.obj
 0002:0000ac54       $unwind$_invalid_parameter 0000000140022c54     libucrt:invalid_parameter.obj
 0002:0000ac68       $unwind$_free_base         0000000140022c68     libucrt:free_base.obj
 0002:0000ac68       $unwind$__acrt_locale_free_numeric 0000000140022c68     libucrt:initnum.obj
 0002:0000ac68       $unwind$?destroy_fls@@YAXPEAX@Z 0000000140022c68     libucrt:per_thread_data.obj
 0002:0000ac68       $unwind$__acrt_locale_free_lc_time_if_unreferenced 0000000140022c68     libucrt:locale_refcounting.obj
 0002:0000ac70       $unwind$__acrt_LCMapStringEx 0000000140022c70     libucrt:winapi_thunks.obj
 0002:0000ac70       $unwind$?fp_format_e@@YAHQEBNQEAD_K12H_NIQEAU__crt_locale_pointers@@@Z 0000000140022c70     libucrt:cvt.obj
 0002:0000ac70       $unwind$__acrt_LCMapStringW 0000000140022c70     libucrt:lcmapstringw.obj
 0002:0000ac70       $unwind$_mbtowc_l          0000000140022c70     libucrt:mbtowc.obj
 0002:0000ac84       $unwind$_wctomb_s_l        0000000140022c84     libucrt:wctomb.obj
 0002:0000ac94       $unwind$?destroy_ptd_array@@YAXQEAU__acrt_ptd@@@Z 0000000140022c94     libucrt:per_thread_data.obj
 0002:0000ac9c       $unwind$??$?RV<lambda_0ae27a3a962d80f24befdcbee591983d>@@AEAV<lambda_8d0ee55de4b1038c4002e0adecdf1839>@@V<lambda_dc504788e8f1664fe9b84e20bfb512f2>@@@?$__crt_seh_guarded_call@X@@QEAAX$$QEAV<lambda_0ae27a3a962d80f24befdcbee591983d>@@AEAV<lambda_8d0ee55de4b1038c4002e0adecdf1839>@@$$QEAV<lambda_dc504788e8f1664fe9b84e20bfb512f2>@@@Z 0000000140022c9c     libucrt:per_thread_data.obj
 0002:0000acc0       $unwind$??$?RV<lambda_aa87e3671a710a21b5dc78c0bdf72e11>@@AEAV<lambda_92619d2358a28f41a33ba319515a20b9>@@V<lambda_6992ecaafeb10aed2b74cb1fae11a551>@@@?$__crt_seh_guarded_call@X@@QEAAX$$QEAV<lambda_aa87e3671a710a21b5dc78c0bdf72e11>@@AEAV<lambda_92619d2358a28f41a33ba319515a20b9>@@$$QEAV<lambda_6992ecaafeb10aed2b74cb1fae11a551>@@@Z 0000000140022cc0     libucrt:per_thread_data.obj
 0002:0000ace4       $unwind$??$?RV<lambda_f2e299630e499de9f9a165e60fcd3db5>@@AEAV<lambda_2ae9d31cdba2644fcbeaf08da7c24588>@@V<lambda_40d01ff24d0e7b3814fdbdcee8eab3c7>@@@?$__crt_seh_guarded_call@X@@QEAAX$$QEAV<lambda_f2e299630e499de9f9a165e60fcd3db5>@@AEAV<lambda_2ae9d31cdba2644fcbeaf08da7c24588>@@$$QEAV<lambda_40d01ff24d0e7b3814fdbdcee8eab3c7>@@@Z 0000000140022ce4     libucrt:per_thread_data.obj
 0002:0000ad08       $unwind$??$?RV<lambda_2d41944a1d46af3157314b8a01080d33>@@AEAV<lambda_8f455de75cd7d7f24b4096f044d8b9e6>@@V<lambda_aa500f224e6afead328df44964fe2772>@@@?$__crt_seh_guarded_call@X@@QEAAX$$QEAV<lambda_2d41944a1d46af3157314b8a01080d33>@@AEAV<lambda_8f455de75cd7d7f24b4096f044d8b9e6>@@$$QEAV<lambda_aa500f224e6afead328df44964fe2772>@@@Z 0000000140022d08     libucrt:per_thread_data.obj
 0002:0000ad2c       $unwind$__acrt_fp_format   0000000140022d2c     libucrt:cvt.obj
 0002:0000ad40       $unwind$?fp_format_e_internal@@YAHQEAD_KH_NIQEAU_strflt@@2QEAU__crt_locale_pointers@@@Z 0000000140022d40     libucrt:cvt.obj
 0002:0000ad58       $unwind$?fp_format_a@@YAHQEBNPEAD_KQEAD2H_NIQEAU__crt_locale_pointers@@@Z 0000000140022d58     libucrt:cvt.obj
 0002:0000ad74       $unwind$?fp_format_f_internal@@YAHQEAD_KHQEAU_strflt@@_NQEAU__crt_locale_pointers@@@Z 0000000140022d74     libucrt:cvt.obj
 0002:0000ad8c       $unwind$?fp_format_g@@YAHQEBNQEAD_K12H_NIQEAU__crt_locale_pointers@@@Z 0000000140022d8c     libucrt:cvt.obj
 0002:0000ada0       $unwind$__acrt_initialize_lowio 0000000140022da0     libucrt:ioinit.obj
 0002:0000adc0       $unwind$?initialize_inherited_file_handles_nolock@@YAXXZ 0000000140022dc0     libucrt:ioinit.obj
 0002:0000addc       $unwind$iswctype           0000000140022ddc     libucrt:iswctype.obj
 0002:0000ade8       $unwind$_isctype_l         0000000140022de8     libucrt:isctype.obj
 0002:0000ae04       $unwind$??$common_expand_argv_wildcards@_W@@YAHQEAPEA_WQEAPEAPEA_W@Z 0000000140022e04     libucrt:argv_wildcards.obj
 0002:0000ae28       $unwind$??$copy_and_add_argument_to_buffer@_W@@YAHQEB_W0_KAEAV?$argument_list@_W@?A0x5f5c8891@@@Z 0000000140022e28     libucrt:argv_wildcards.obj
 0002:0000ae44       $unwind$_setmbcp_nolock    0000000140022e44     libucrt:mbctype.obj
 0002:0000ae64       $unwind$?update_thread_multibyte_data_internal@@YAPEAU__crt_multibyte_data@@QEAU__acrt_ptd@@QEAPEAU1@@Z 0000000140022e64     libucrt:mbctype.obj
 0002:0000ae8c       $unwind$?setmbcp_internal@@YAHH_NQEAU__acrt_ptd@@QEAPEAU__crt_multibyte_data@@@Z 0000000140022e8c     libucrt:mbctype.obj
 0002:0000ae9c       $unwind$?setSBUpLow@@YAXPEAU__crt_multibyte_data@@@Z 0000000140022e9c     libucrt:mbctype.obj
 0002:0000aeb8       $unwind$??$?RV<lambda_efdfa57d1f175319df784efa44bb7b81>@@AEAV<lambda_5f0a4c1567f8adc6734073e5d1e1b35c>@@V<lambda_2e8a7d3640ea6ccb4c2413664c2db6fd>@@@?$__crt_seh_guarded_call@X@@QEAAX$$QEAV<lambda_efdfa57d1f175319df784efa44bb7b81>@@AEAV<lambda_5f0a4c1567f8adc6734073e5d1e1b35c>@@$$QEAV<lambda_2e8a7d3640ea6ccb4c2413664c2db6fd>@@@Z 0000000140022eb8     libucrt:mbctype.obj
 0002:0000aedc       $unwind$__GSHandlerCheckCommon 0000000140022edc     LIBCMT:gshandler.obj
 0002:0000aedc       $unwind$__acrt_WideCharToMultiByte 0000000140022edc     libucrt:widechartomultibyte.obj
 0002:0000aee4       $unwind$__acrt_lowio_destroy_handle_array 0000000140022ee4     libucrt:osfinfo.obj
 0002:0000aef4       $unwind$__acrt_lowio_ensure_fh_exists 0000000140022ef4     libucrt:osfinfo.obj
 0002:0000af20       $unwind$__acrt_locale_free_monetary 0000000140022f20     libucrt:initmon.obj
 0002:0000af28       $unwind$__acrt_locale_free_time 0000000140022f28     libucrt:inittime.obj
 0002:0000af38       $unwind$__acrt_GetStringTypeA 0000000140022f38     libucrt:getstringtypea.obj
 0002:0000af60       $unwind$__acrt_update_thread_locale_data 0000000140022f60     libucrt:locale_refcounting.obj
 0002:0000af84       $unwind$raise              0000000140022f84     libucrt:signal.obj
 0002:0000afc0       $unwind$??$?RV<lambda_450d765d439847d4c735a33c368b5fc0>@@AEAV<lambda_44731a7d0e6d81c3e6aa82d741081786>@@V<lambda_601a2a7da3b7a96e9554ac7215c4b07c>@@@?$__crt_seh_guarded_call@P6AXH@Z@@QEAAP6AXH@Z$$QEAV<lambda_450d765d439847d4c735a33c368b5fc0>@@AEAV<lambda_44731a7d0e6d81c3e6aa82d741081786>@@$$QEAV<lambda_601a2a7da3b7a96e9554ac7215c4b07c>@@@Z 0000000140022fc0     libucrt:signal.obj
 0002:0000afe4       $unwind$?common_flush_all@@YAH_N@Z 0000000140022fe4     libucrt:fflush.obj
 0002:0000afec       $unwind$??$?RV<lambda_842d9ff0dc9ef11c61343bbaebe7f885>@@AEAV<lambda_c5860995281e5c4ce005b3de8f5874ee>@@V<lambda_d90129c13df834fdcbf8d2b88dafcf2d>@@@?$__crt_seh_guarded_call@X@@QEAAX$$QEAV<lambda_842d9ff0dc9ef11c61343bbaebe7f885>@@AEAV<lambda_c5860995281e5c4ce005b3de8f5874ee>@@$$QEAV<lambda_d90129c13df834fdcbf8d2b88dafcf2d>@@@Z 0000000140022fec     libucrt:fflush.obj
 0002:0000b010       $unwind$??$?RV<lambda_886d6c58226a84441f68b9f2b8217b83>@@AEAV<lambda_ab61a845afdef5b7c387490eaf3616ee>@@V<lambda_f7f22ab5edc0698d5f6905b0d3f44752>@@@?$__crt_seh_guarded_call@X@@QEAAX$$QEAV<lambda_886d6c58226a84441f68b9f2b8217b83>@@AEAV<lambda_ab61a845afdef5b7c387490eaf3616ee>@@$$QEAV<lambda_f7f22ab5edc0698d5f6905b0d3f44752>@@@Z 0000000140023010     libucrt:fflush.obj
 0002:0000b038       $unwind$?__mbsrtowcs_utf8@__crt_mbstring@@YA_KPEA_WPEAPEBD_KPEAU_Mbstatet@@@Z 0000000140023038     libucrt:mbrtowc.obj
 0002:0000b050       $unwind$__acrt_fltout      0000000140023050     libucrt:cfout.obj
 0002:0000b070       $unwind$?divide@__crt_strtox@@YA_KAEAUbig_integer@1@AEBU21@@Z 0000000140023070     libucrt:cfout.obj
 0002:0000b088       $chain$0$?divide@__crt_strtox@@YA_KAEAUbig_integer@1@AEBU21@@Z 0000000140023088     libucrt:cfout.obj
 0002:0000b09c       $chain$1$?divide@__crt_strtox@@YA_KAEAUbig_integer@1@AEBU21@@Z 000000014002309c     libucrt:cfout.obj
 0002:0000b0ac       $unwind$_fcloseall         00000001400230ac     libucrt:closeall.obj
 0002:0000b0d0       $unwind$qsort              00000001400230d0     libucrt:qsort.obj
 0002:0000b0e8       $chain$4$qsort             00000001400230e8     libucrt:qsort.obj
 0002:0000b10c       $chain$5$qsort             000000014002310c     libucrt:qsort.obj
 0002:0000b11c       $unwind$__acrt_LCMapStringA 000000014002311c     libucrt:lcmapstringa.obj
 0002:0000b12c       $unwind$?__acrt_LCMapStringA_stat@@YAHPEAU__crt_locale_pointers@@PEB_WKPEBDHPEADHHH@Z 000000014002312c     libucrt:lcmapstringa.obj
 0002:0000b154       $unwind$_commit            0000000140023154     libucrt:commit.obj
 0002:0000b154       $unwind$_close             0000000140023154     libucrt:close.obj
 0002:0000b15c       $unwind$??$?RV<lambda_a37b2b86f63e897a80ea819b0eb08c01>@@AEAV<lambda_38ce7e780aa69e748d6df282ebc68efe>@@V<lambda_99fb1378e971ab6e7edea83e3a7a83a2>@@@?$__crt_seh_guarded_call@H@@QEAAH$$QEAV<lambda_a37b2b86f63e897a80ea819b0eb08c01>@@AEAV<lambda_38ce7e780aa69e748d6df282ebc68efe>@@$$QEAV<lambda_99fb1378e971ab6e7edea83e3a7a83a2>@@@Z 000000014002315c     libucrt:commit.obj
 0002:0000b180       $unwind$_write             0000000140023180     libucrt:write.obj
 0002:0000b1b0       $unwind$_write_nolock      00000001400231b0     libucrt:write.obj
 0002:0000b1c8       $unwind$?write_double_translated_ansi_nolock@@YA?AUwrite_result@?A0x17268360@@HQEBDI@Z 00000001400231c8     libucrt:write.obj
 0002:0000b1ec       $unwind$?write_text_utf16le_nolock@@YA?AUwrite_result@?A0x17268360@@HQEBDI@Z 00000001400231ec     libucrt:write.obj
 0002:0000b1ec       $unwind$?write_text_ansi_nolock@@YA?AUwrite_result@?A0x17268360@@HQEBDI@Z 00000001400231ec     libucrt:write.obj
 0002:0000b20c       $unwind$?write_text_utf8_nolock@@YA?AUwrite_result@?A0x17268360@@HQEBDI@Z 000000014002320c     libucrt:write.obj
 0002:0000b230       $unwind$?__mbrtoc32_utf8@__crt_mbstring@@YA_KPEA_UPEBD_KPEAU_Mbstatet@@@Z 0000000140023230     libucrt:mbrtoc32.obj
 0002:0000b250       $xdatasym                  0000000140023250     libucrt:log10.obj
 0002:0000b25c       $unwind$fclose             000000014002325c     libucrt:fclose.obj
 0002:0000b280       $unwind$_putwch_nolock     0000000140023280     libucrt:putwch.obj
 0002:0000b288       $unwind$__acrt_fenv_set_control 0000000140023288     libucrt:_fenvutils.obj
 0002:0000b298       $unwind$_call_matherr      0000000140023298     libucrt:libm_error.obj
 0002:0000b2a0       $unwind$_handle_error      00000001400232a0     libucrt:libm_error.obj
 0002:0000b2c0       $unwind$__acrt_initialize_fma3 00000001400232c0     libucrt:fma3_available.obj
 0002:0000b2c8       $unwind$_log_special_common 00000001400232c8     libucrt:log_special.obj
 0002:0000b2d4       $unwind$??$?RV<lambda_751a882b2c74d4b022dec766aa51a29a>@@AEAV<lambda_628dfdc04ba53c8bfc02c9951375f3f5>@@V<lambda_f6c7be5f7998530c34de24c7437d6b54>@@@?$__crt_seh_guarded_call@H@@QEAAH$$QEAV<lambda_751a882b2c74d4b022dec766aa51a29a>@@AEAV<lambda_628dfdc04ba53c8bfc02c9951375f3f5>@@$$QEAV<lambda_f6c7be5f7998530c34de24c7437d6b54>@@@Z 00000001400232d4     libucrt:close.obj
 0002:0000b2f8       $unwind$__dcrt_write_console 00000001400232f8     libucrt:initcon.obj
 0002:0000b310       $xdatasym                  0000000140023310     libucrt:fpsr.obj
 0002:0000b318       $unwind$_raise_exc_ex      0000000140023318     libucrt:fpexcept.obj
 0002:0000b32c       $unwind$_ctrlfp            000000014002332c     libucrt:fpctrl.obj
 0002:0000b358       $xdatasym                  0000000140023358     LIBCMT:amdsecgs.obj
 0002:0000b35c       $unwind$_IsNonwritableInCurrentImage 000000014002335c     LIBCMT:pesect.obj
 0002:0000b380       $unwind$__report_gsfailure 0000000140023380     LIBCMT:gs_report.obj
 0002:0000b388       $unwind$capture_previous_context 0000000140023388     LIBCMT:gs_report.obj
 0002:0000b398       $xdatasym                  0000000140023398     LIBCMT:chkstk.obj
 0002:0000b3a0       $xdatasym                  00000001400233a0     libvcruntime:memcmp.obj
 0002:0000b3a4       $unwind$strrchr            00000001400233a4     libvcruntime:strrchr.obj
 0002:0000b3ac       $unwind$__RTDynamicCast    00000001400233ac     libvcruntime:rtti.obj
 0002:0000b3ec       $unwind$__RTDynamicCast$filt$0 00000001400233ec     libvcruntime:rtti.obj
 0002:0000b3f4       $unwind$?FindSITargetTypeInstance@@YAPEBU_s_RTTIBaseClassDescriptor@@PEBU_s_RTTICompleteObjectLocator@@PEAUTypeDescriptor@@1_K@Z 00000001400233f4     libvcruntime:rtti.obj
 0002:0000b40c       $unwind$?FindMITargetTypeInstance@@YAPEBU_s_RTTIBaseClassDescriptor@@PEAXPEBU_s_RTTICompleteObjectLocator@@PEAUTypeDescriptor@@_J2_K@Z 000000014002340c     libvcruntime:rtti.obj
 0002:0000b424       $unwind$?FindVITargetTypeInstance@@YAPEBU_s_RTTIBaseClassDescriptor@@PEAXPEBU_s_RTTICompleteObjectLocator@@PEAUTypeDescriptor@@_J2_K@Z 0000000140023424     libvcruntime:rtti.obj
 0002:0000be32       .idata$6                   0000000140023e32     kernel32:KERNEL32.dll
 0002:0000be96       .idata$6                   0000000140023e96     user32:USER32.dll
 0002:0000bef0       .idata$6                   0000000140023ef0     shell32:SHELL32.dll
 0002:0000bf40       .idata$6                   0000000140023f40     ole32:ole32.dll
 0002:0000cc22       .idata$6                   0000000140024c22     DuiLib:DuiLib.dll
 0002:0000cc38       .idata$6                   0000000140024c38     Shlwapi:SHLWAPI.dll
 0003:00000030       ?__vcrt_flsindex@@3KA      0000000140026030     libvcruntime:per_thread_data.obj
 0003:00000050       ?errno_no_memory@@3HA      0000000140026050     libucrt:errno.obj
 0003:00000054       ?doserrno_no_memory@@3KA   0000000140026054     libucrt:errno.obj
 0003:00000058       ?__acrt_flsindex@@3KA      0000000140026058     libucrt:per_thread_data.obj
 0003:00000520       _mbctypes                  0000000140026520     libucrt:mbctype.obj
 0003:00000630       _mbcasemaps                0000000140026630     libucrt:mbctype.obj
 0003:00000730       ?__rgctypeflag@@3PADA      0000000140026730     libucrt:mbctype.obj
 0003:00000740       ?__rgcode_page_info@@3PAUcode_page_info@@A 0000000140026740     libucrt:mbctype.obj
 0003:000009e0       ?__dcrt_lowio_console_output_handle@@3PEAXEA 00000001400269e0     libucrt:initcon.obj
 0003:000009f0       ?dazSupported@?1??_ctrlfp@@9@9 00000001400269f0     libucrt:fpctrl.obj
 0003:00001540       ?is_initialized_as_dll@@3_NA 0000000140027540     LIBCMT:utility.obj
 0003:00001541       ?module_local_atexit_table_initialized@@3_NA 0000000140027541     LIBCMT:utility.obj
 0003:00001548       ?module_local_atexit_table@@3U_onexit_table_t@@A 0000000140027548     LIBCMT:utility.obj
 0003:00001560       ?module_local_at_quick_exit_table@@3U_onexit_table_t@@A 0000000140027560     LIBCMT:utility.obj
 0003:000015b0       ?__vcrt_startup_thread_ptd@@3U__vcrt_ptd@@A 00000001400275b0     libvcruntime:per_thread_data.obj
 0003:00001648       __vcrt_lock_table          0000000140027648     libvcruntime:locks.obj
 0003:00001670       __vcrt_locks_initialized   0000000140027670     libvcruntime:locks.obj
 0003:00001678       ?module_handles@@3PAPEAUHINSTANCE__@@A 0000000140027678     libvcruntime:winapi_downlevel.obj
 0003:00001690       ?encoded_function_pointers@@3PAPEAXA 0000000140027690     libvcruntime:winapi_downlevel.obj
 0003:000016f8       ?heap@@3V_HeapManager@@A   00000001400276f8     libvcruntime:undname.obj
 0003:00001720       ?__acrt_new_handler@@3V?$dual_state_global@P6AH_K@Z@__crt_state_management@@A 0000000140027720     libucrt:new_handler.obj
 0003:00001728       ?__acrt_app_type@@3W4_crt_app_type@@A 0000000140027728     libucrt:report_runtime_error.obj
 0003:00001730       ?user_matherr@@3V?$dual_state_global@P6AHPEAU_exception@@@Z@__crt_state_management@@A 0000000140027730     libucrt:matherr.obj
 0003:00001740       ?program_name@?1???$common_configure_argv@_W@@YAHW4_crt_argv_mode@@@Z@4PA_WA 0000000140027740     libucrt:argv_parsing.obj
 0003:00001970       ?empty_string@?1???$common_wincmdln@_W@@YAPEA_WXZ@4PA_WA 0000000140027970     libucrt:argv_winmain.obj
 0003:00001974       ?c_termination_complete@@3JA 0000000140027974     libucrt:exit.obj
 0003:00001978       ?thread_local_exit_callback_func@@3P6AXPEAXK0@ZEA 0000000140027978     libucrt:exit.obj
 0003:00001988       ?__acrt_global_new_mode@@3V?$dual_state_global@J@__crt_state_management@@A 0000000140027988     libucrt:new_mode.obj
 0003:000019c0       ?__acrt_invalid_parameter_handler@@3V?$dual_state_global@P6AXPEB_W00I_K@Z@__crt_state_management@@A 00000001400279c0     libucrt:invalid_parameter.obj
 0003:000019c8       ?internal_state@?1??_mbtowc_l@@9@4U_Mbstatet@@A 00000001400279c8     libucrt:mbtowc.obj
 0003:000019e0       ?enable_percent_n@@3_KA    00000001400279e0     libucrt:printf_count_output.obj
 0003:00001e10       ?__acrt_lock_table@@3PAU_RTL_CRITICAL_SECTION@@A 0000000140027e10     libucrt:locks.obj
 0003:00002040       ?__acrt_locks_initialized@@3IA 0000000140028040     libucrt:locks.obj
 0003:00002060       ?fSystemSet@@3HA           0000000140028060     libucrt:mbctype.obj
 0003:00002064       ?initialized@?1??__acrt_initialize_multibyte@@9@4_NA 0000000140028064     libucrt:mbctype.obj
 0003:000020a0       ?module_handles@@3PAPEAUHINSTANCE__@@A 00000001400280a0     libucrt:winapi_thunks.obj
 0003:00002140       ?encoded_function_pointers@@3PAPEAXA 0000000140028140     libucrt:winapi_thunks.obj
 0003:00002260       ?ctrlc_action@@3V?$dual_state_global@P6AXH@Z@__crt_state_management@@A 0000000140028260     libucrt:signal.obj
 0003:00002268       ?ctrlbreak_action@@3V?$dual_state_global@P6AXH@Z@__crt_state_management@@A 0000000140028268     libucrt:signal.obj
 0003:00002270       ?abort_action@@3V?$dual_state_global@P6AXH@Z@__crt_state_management@@A 0000000140028270     libucrt:signal.obj
 0003:00002278       ?term_action@@3V?$dual_state_global@P6AXH@Z@__crt_state_management@@A 0000000140028278     libucrt:signal.obj
 0003:00002280       ?internal_pst@?1??__mbrtoc32_utf8@__crt_mbstring@@YA_KPEA_UPEBD_KPEAU_Mbstatet@@@Z@4U3@A 0000000140028280     libucrt:mbrtoc32.obj
 0003:00002290       GS_ExceptionRecord         0000000140028290     LIBCMT:gs_report.obj
 0003:00002330       GS_ContextRecord           0000000140028330     LIBCMT:gs_report.obj
 0004:00000000       $pdata$??_Gtype_info@@UEAAPEAXI@Z 0000000140029000     LIBCMT:std_type_info_static.obj
 0004:0000000c       $pdata$??2@YAPEAX_K@Z      000000014002900c     LIBCMT:new_scalar.obj
 0004:00000018       $pdata$?pre_c_initialization@@YAHXZ 0000000140029018     LIBCMT:exe_wwinmain.obj
 0004:00000024       $pdata$?post_pgo_initialization@@YAHXZ 0000000140029024     LIBCMT:exe_wwinmain.obj
 0004:00000030       $pdata$?pre_cpp_initialization@@YAXXZ 0000000140029030     LIBCMT:exe_wwinmain.obj
 0004:0000003c       $pdata$?__scrt_common_main_seh@@YAHXZ 000000014002903c     LIBCMT:exe_wwinmain.obj
 0004:00000048       $pdata$?filt$0@?0??__scrt_common_main_seh@@YAHXZ@4HA 0000000140029048     LIBCMT:exe_wwinmain.obj
 0004:00000054       $pdata$wWinMainCRTStartup  0000000140029054     LIBCMT:exe_wwinmain.obj
 0004:00000060       $pdata$??0exception@std@@QEAA@AEBV01@@Z 0000000140029060     LIBCMT:throw_bad_alloc.obj
 0004:0000006c       $pdata$??_G__non_rtti_object@std@@UEAAPEAXI@Z 000000014002906c     libvcruntime:rtti.obj
 0004:0000006c       $pdata$??_Gbad_alloc@std@@UEAAPEAXI@Z 000000014002906c     LIBCMT:throw_bad_alloc.obj
 0004:0000006c       $pdata$??_Gbad_exception@std@@UEAAPEAXI@Z 000000014002906c     libvcruntime:frame.obj
 0004:0000006c       $pdata$??_Gexception@std@@UEAAPEAXI@Z 000000014002906c     LIBCMT:throw_bad_alloc.obj
 0004:0000006c       $pdata$??_Gbad_cast@std@@UEAAPEAXI@Z 000000014002906c     libvcruntime:rtti.obj
 0004:0000006c       $pdata$??_Gbad_typeid@std@@UEAAPEAXI@Z 000000014002906c     libvcruntime:rtti.obj
 0004:0000006c       $pdata$??_Gbad_array_new_length@std@@UEAAPEAXI@Z 000000014002906c     LIBCMT:throw_bad_alloc.obj
 0004:00000078       $pdata$??0bad_alloc@std@@QEAA@AEBV01@@Z 0000000140029078     LIBCMT:throw_bad_alloc.obj
 0004:00000084       $pdata$??0bad_array_new_length@std@@QEAA@AEBV01@@Z 0000000140029084     LIBCMT:throw_bad_alloc.obj
 0004:00000090       $pdata$?__scrt_throw_std_bad_alloc@@YAXXZ 0000000140029090     LIBCMT:throw_bad_alloc.obj
 0004:0000009c       $pdata$?__scrt_throw_std_bad_array_new_length@@YAXXZ 000000014002909c     LIBCMT:throw_bad_alloc.obj
 0004:000000a8       $pdata$atexit              00000001400290a8     LIBCMT:utility.obj
 0004:000000b4       $pdata$_onexit             00000001400290b4     LIBCMT:utility.obj
 0004:000000c0       $pdata$__scrt_is_nonwritable_in_current_image 00000001400290c0     LIBCMT:utility.obj
 0004:000000cc       $pdata$__scrt_is_nonwritable_in_current_image$filt$0 00000001400290cc     LIBCMT:utility.obj
 0004:000000d8       $pdata$__scrt_acquire_startup_lock 00000001400290d8     LIBCMT:utility.obj
 0004:000000e4       $pdata$__scrt_release_startup_lock 00000001400290e4     LIBCMT:utility.obj
 0004:000000f0       $pdata$__scrt_initialize_crt 00000001400290f0     LIBCMT:utility.obj
 0004:000000fc       $pdata$__scrt_uninitialize_crt 00000001400290fc     LIBCMT:utility.obj
 0004:00000108       $pdata$__scrt_initialize_onexit_tables 0000000140029108     LIBCMT:utility.obj
 0004:00000114       $pdata$__security_init_cookie 0000000140029114     LIBCMT:gs_support.obj
 0004:00000120       $pdata$__scrt_initialize_default_local_stdio_options 0000000140029120     LIBCMT:default_local_stdio_options.obj
 0004:0000012c       $pdata$__scrt_get_show_window_mode 000000014002912c     LIBCMT:utility_desktop.obj
 0004:00000138       $pdata$__scrt_is_managed_app 0000000140029138     LIBCMT:utility_desktop.obj
 0004:00000144       $pdata$__scrt_fastfail     0000000140029144     LIBCMT:utility_desktop.obj
 0004:00000150       $pdata$__scrt_unhandled_exception_filter 0000000140029150     LIBCMT:utility_desktop.obj
 0004:0000015c       $pdata$_RTC_Initialize     000000014002915c     LIBCMT:initsect.obj
 0004:00000168       $pdata$_RTC_Terminate      0000000140029168     LIBCMT:initsect.obj
 0004:00000174       $pdata$__isa_available_init 0000000140029174     LIBCMT:cpu_disp.obj
 0004:0000018c       $pdata$?CatchTryBlock@__FrameHandler3@@SAPEBU_s_TryBlockMapEntry@@PEBU_s_FuncInfo@@H@Z 000000014002918c     libvcruntime:risctrnsctrl.obj
 0004:00000198       $pdata$?ExecutionInCatch@__FrameHandler3@@SA_NPEAU_xDISPATCHER_CONTEXT@@PEBU_s_FuncInfo@@@Z 0000000140029198     libvcruntime:risctrnsctrl.obj
 0004:000001a4       $pdata$?FrameUnwindToEmptyState@__FrameHandler3@@SAXPEA_KPEAU_xDISPATCHER_CONTEXT@@PEBU_s_FuncInfo@@@Z 00000001400291a4     libvcruntime:risctrnsctrl.obj
 0004:000001b0       $pdata$?GetEstablisherFrame@__FrameHandler3@@SAPEA_KPEA_KPEAU_xDISPATCHER_CONTEXT@@PEBU_s_FuncInfo@@0@Z 00000001400291b0     libvcruntime:risctrnsctrl.obj
 0004:000001bc       $pdata$?UnwindNestedFrames@__FrameHandler3@@SAXPEA_KPEAUEHExceptionRecord@@PEAU_CONTEXT@@0PEAXPEBU_s_FuncInfo@@HHPEBU_s_HandlerType@@PEAU_xDISPATCHER_CONTEXT@@E@Z 00000001400291bc     libvcruntime:risctrnsctrl.obj
 0004:000001c8       $pdata$?GetRangeOfTrysToCheck@__FrameHandler3@@SA?AU?$pair@Viterator@TryBlockMap@__FrameHandler3@@V123@@std@@AEAVTryBlockMap@1@HH@Z 00000001400291c8     libvcruntime:risctrnsctrl.obj
 0004:000001d4       $pdata$_GetImageBase       00000001400291d4     libvcruntime:risctrnsctrl.obj
 0004:000001e0       $pdata$_SetImageBase       00000001400291e0     libvcruntime:risctrnsctrl.obj
 0004:000001ec       $pdata$_GetThrowImageBase  00000001400291ec     libvcruntime:risctrnsctrl.obj
 0004:000001f8       $pdata$_SetThrowImageBase  00000001400291f8     libvcruntime:risctrnsctrl.obj
 0004:00000204       $pdata$_CreateFrameInfo    0000000140029204     libvcruntime:risctrnsctrl.obj
 0004:00000210       $pdata$_FindAndUnlinkFrame 0000000140029210     libvcruntime:risctrnsctrl.obj
 0004:0000021c       $pdata$__CxxFrameHandler3  000000014002921c     libvcruntime:risctrnsctrl.obj
 0004:00000228       $pdata$??$_CallSETranslator@V__FrameHandler3@@@@YAHPEAUEHExceptionRecord@@PEA_KPEAU_CONTEXT@@PEAU_xDISPATCHER_CONTEXT@@PEBU_s_FuncInfo@@K1@Z 0000000140029228     libvcruntime:risctrnsctrl.obj
 0004:00000234       $pdata$?filt$0@?0???$_CallSETranslator@V__FrameHandler3@@@@YAHPEAUEHExceptionRecord@@PEA_KPEAU_CONTEXT@@PEAU_xDISPATCHER_CONTEXT@@PEBU_s_FuncInfo@@K1@Z@4HA 0000000140029234     libvcruntime:risctrnsctrl.obj
 0004:00000240       $pdata$_purecall           0000000140029240     libvcruntime:purevirt.obj
 0004:0000024c       $pdata$_IsExceptionObjectToBeDestroyed 000000014002924c     libvcruntime:ehhelpers.obj
 0004:00000258       $pdata$__FrameUnwindFilter 0000000140029258     libvcruntime:ehhelpers.obj
 0004:00000264       $pdata$__DestructExceptionObject 0000000140029264     libvcruntime:ehhelpers.obj
 0004:00000270       $pdata$__DestructExceptionObject$filt$0 0000000140029270     libvcruntime:ehhelpers.obj
 0004:0000027c       $pdata$__C_specific_handler 000000014002927c     libvcruntime:riscchandler.obj
 0004:00000288       $pdata$__std_exception_copy 0000000140029288     libvcruntime:std_exception.obj
 0004:00000294       $pdata$__std_exception_destroy 0000000140029294     libvcruntime:std_exception.obj
 0004:000002a0       $pdata$_CxxThrowException  00000001400292a0     libvcruntime:throw.obj
 0004:000002ac       $pdata$__vcrt_initialize   00000001400292ac     libvcruntime:initialization.obj
 0004:000002b8       $pdata$__vcrt_uninitialize 00000001400292b8     libvcruntime:initialization.obj
 0004:000002dc       $pdata$__vcrt_initialize_ptd 00000001400292dc     libvcruntime:per_thread_data.obj
 0004:000002e8       $pdata$__vcrt_uninitialize_ptd 00000001400292e8     libvcruntime:per_thread_data.obj
 0004:000002f4       $pdata$__vcrt_getptd       00000001400292f4     libvcruntime:per_thread_data.obj
 0004:00000300       $pdata$__vcrt_getptd_noexit 0000000140029300     libvcruntime:per_thread_data.obj
 0004:0000030c       $pdata$__vcrt_freefls      000000014002930c     libvcruntime:per_thread_data.obj
 0004:00000318       $pdata$?StateFromIp@__FrameHandler3@@SAHPEBU_s_FuncInfo@@PEAU_xDISPATCHER_CONTEXT@@_K@Z 0000000140029318     libvcruntime:ehstate.obj
 0004:00000324       $pdata$?GetCurrentState@__FrameHandler3@@SAHPEA_KPEAU_xDISPATCHER_CONTEXT@@PEBU_s_FuncInfo@@@Z 0000000140029324     libvcruntime:ehstate.obj
 0004:00000330       $pdata$?SetUnwindTryBlock@__FrameHandler3@@SAXPEA_KPEAU_xDISPATCHER_CONTEXT@@PEBU_s_FuncInfo@@H@Z 0000000140029330     libvcruntime:ehstate.obj
 0004:0000033c       $pdata$?GetUnwindTryBlock@__FrameHandler3@@SAHPEA_KPEAU_xDISPATCHER_CONTEXT@@PEBU_s_FuncInfo@@@Z 000000014002933c     libvcruntime:ehstate.obj
 0004:00000348       $pdata$?FrameUnwindToState@__FrameHandler3@@SAXPEA_KPEAU_xDISPATCHER_CONTEXT@@PEBU_s_FuncInfo@@H@Z 0000000140029348     libvcruntime:frame.obj
 0004:00000354       $pdata$?filt$0@?0??FrameUnwindToState@__FrameHandler3@@SAXPEA_KPEAU_xDISPATCHER_CONTEXT@@PEBU_s_FuncInfo@@H@Z@4HA 0000000140029354     libvcruntime:frame.obj
 0004:00000360       $pdata$?fin$1@?0??FrameUnwindToState@__FrameHandler3@@SAXPEA_KPEAU_xDISPATCHER_CONTEXT@@PEBU_s_FuncInfo@@H@Z@4HA 0000000140029360     libvcruntime:frame.obj
 0004:0000036c       $pdata$?GetHandlerSearchState@__FrameHandler3@@SAHPEA_KPEAU_xDISPATCHER_CONTEXT@@PEBU_s_FuncInfo@@@Z 000000014002936c     libvcruntime:frame.obj
 0004:00000378       $pdata$?CxxCallCatchBlock@__FrameHandler3@@SAPEAXPEAU_EXCEPTION_RECORD@@@Z 0000000140029378     libvcruntime:frame.obj
 0004:00000384       $pdata$?filt$0@?0??CxxCallCatchBlock@__FrameHandler3@@SAPEAXPEAU_EXCEPTION_RECORD@@@Z@4HA 0000000140029384     libvcruntime:frame.obj
 0004:00000390       $pdata$?fin$1@?0??CxxCallCatchBlock@__FrameHandler3@@SAPEAXPEAU_EXCEPTION_RECORD@@@Z@4HA 0000000140029390     libvcruntime:frame.obj
 0004:0000039c       $pdata$??0bad_exception@std@@QEAA@AEBV01@@Z 000000014002939c     libvcruntime:frame.obj
 0004:000003a8       $pdata$?ExFilterRethrow@@YAHPEAU_EXCEPTION_POINTERS@@PEAUEHExceptionRecord@@PEAH@Z 00000001400293a8     libvcruntime:frame.obj
 0004:000003b4       $pdata$?IsInExceptionSpec@@YAEPEAUEHExceptionRecord@@PEBU_s_ESTypeList@@@Z 00000001400293b4     libvcruntime:frame.obj
 0004:000003c0       $pdata$?Is_bad_exception_allowed@@YAEPEBU_s_ESTypeList@@@Z 00000001400293c0     libvcruntime:frame.obj
 0004:000003cc       $pdata$??$__InternalCxxFrameHandler@V__FrameHandler3@@@@YA?AW4_EXCEPTION_DISPOSITION@@PEAUEHExceptionRecord@@PEA_KPEAU_CONTEXT@@PEAU_xDISPATCHER_CONTEXT@@PEBU_s_FuncInfo@@H1E@Z 00000001400293cc     libvcruntime:frame.obj
 0004:000003d8       $pdata$??$TypeMatchHelper@V__FrameHandler3@@@@YAHPEBU_s_HandlerType@@PEBU_s_CatchableType@@PEBU_s_ThrowInfo@@@Z 00000001400293d8     libvcruntime:frame.obj
 0004:000003e4       $pdata$??$BuildCatchObjectHelperInternal@V__FrameHandler3@@@@YAHPEAUEHExceptionRecord@@PEAXPEBU_s_HandlerType@@PEBU_s_CatchableType@@@Z 00000001400293e4     libvcruntime:frame.obj
 0004:000003f0       $pdata$??$BuildCatchObjectInternal@V__FrameHandler3@@@@YAXPEAUEHExceptionRecord@@PEAXPEBU_s_HandlerType@@PEBU_s_CatchableType@@@Z 00000001400293f0     libvcruntime:frame.obj
 0004:000003fc       $pdata$??$FindHandler@V__FrameHandler3@@@@YAXPEAUEHExceptionRecord@@PEA_KPEAU_CONTEXT@@PEAU_xDISPATCHER_CONTEXT@@PEBU_s_FuncInfo@@EH1@Z 00000001400293fc     libvcruntime:frame.obj
 0004:00000408       $pdata$??$CatchIt@V__FrameHandler3@@@@YAXPEAUEHExceptionRecord@@PEA_KPEAU_CONTEXT@@PEAU_xDISPATCHER_CONTEXT@@PEBU_s_FuncInfo@@PEBU_s_HandlerType@@PEBU_s_CatchableType@@PEBU_s_TryBlockMapEntry@@H1EE@Z 0000000140029408     libvcruntime:frame.obj
 0004:00000414       $pdata$??$FindHandlerForForeignException@V__FrameHandler3@@@@YAXPEAUEHExceptionRecord@@PEA_KPEAU_CONTEXT@@PEAU_xDISPATCHER_CONTEXT@@PEBU_s_FuncInfo@@HH1@Z 0000000140029414     libvcruntime:frame.obj
 0004:00000444       $pdata$__vcrt_initialize_locks 0000000140029444     libvcruntime:locks.obj
 0004:00000450       $pdata$__vcrt_uninitialize_locks 0000000140029450     libvcruntime:locks.obj
 0004:0000045c       $pdata$__vcrt_FlsAlloc     000000014002945c     libvcruntime:winapi_downlevel.obj
 0004:00000468       $pdata$__vcrt_FlsFree      0000000140029468     libvcruntime:winapi_downlevel.obj
 0004:00000474       $pdata$__vcrt_FlsGetValue  0000000140029474     libvcruntime:winapi_downlevel.obj
 0004:00000480       $pdata$__vcrt_FlsSetValue  0000000140029480     libvcruntime:winapi_downlevel.obj
 0004:0000048c       $pdata$__vcrt_InitializeCriticalSectionEx 000000014002948c     libvcruntime:winapi_downlevel.obj
 0004:00000498       $pdata$__vcrt_initialize_winapi_thunks 0000000140029498     libvcruntime:winapi_downlevel.obj
 0004:000004a4       $pdata$__vcrt_uninitialize_winapi_thunks 00000001400294a4     libvcruntime:winapi_downlevel.obj
 0004:000004b0       $pdata$?try_get_function@@YAPEAXW4function_id@?A0xbfd18cd1@@QEBDQEBW4module_id@2@2@Z 00000001400294b0     libvcruntime:winapi_downlevel.obj
 0004:000004ec       $pdata$??0_LocaleUpdate@@QEAA@QEAU__crt_locale_pointers@@@Z 00000001400294ec     libucrt:output.obj
 0004:000004f8       $pdata$__stdio_common_vsnwprintf_s 00000001400294f8     libucrt:output.obj
 0004:00000504       $pdata$__stdio_common_vsprintf_s 0000000140029504     libucrt:output.obj
 0004:00000510       $pdata$?write_string@?$string_output_adapter@D@__crt_stdio_output@@QEBAXQEBDHQEAHAEAV__crt_deferred_errno_cache@@@Z 0000000140029510     libucrt:output.obj
 0004:0000051c       $pdata$?write_string@?$string_output_adapter@_W@__crt_stdio_output@@QEBAXQEB_WHQEAHAEAV__crt_deferred_errno_cache@@@Z 000000014002951c     libucrt:output.obj
 0004:00000528       $pdata$??$common_vsprintf@Vformat_validation_base@__crt_stdio_output@@D@@YAH_KQEAD0QEBDQEAU__crt_locale_pointers@@1@Z 0000000140029528     libucrt:output.obj
 0004:00000534       $pdata$??$common_vsprintf@Vformat_validation_base@__crt_stdio_output@@_W@@YAH_KQEA_W0QEB_WQEAU__crt_locale_pointers@@QEAD@Z 0000000140029534     libucrt:output.obj
 0004:00000540       $pdata$??$write_multiple_characters@V?$string_output_adapter@_W@__crt_stdio_output@@D@__crt_stdio_output@@YAXAEBV?$string_output_adapter@_W@0@DHQEAH@Z 0000000140029540     libucrt:output.obj
 0004:0000054c       $pdata$??$write_multiple_characters@V?$string_output_adapter@D@__crt_stdio_output@@D@__crt_stdio_output@@YAXAEBV?$string_output_adapter@D@0@DHQEAH@Z 000000014002954c     libucrt:output.obj
 0004:00000558       $pdata$??$ensure_buffer_is_big_enough@D@formatting_buffer@__crt_stdio_output@@QEAA_N_K@Z 0000000140029558     libucrt:output.obj
 0004:00000564       $pdata$??$ensure_buffer_is_big_enough@_W@formatting_buffer@__crt_stdio_output@@QEAA_N_K@Z 0000000140029564     libucrt:output.obj
 0004:00000570       $pdata$?process@?$output_processor@DV?$string_output_adapter@D@__crt_stdio_output@@V?$format_validation_base@DV?$string_output_adapter@D@__crt_stdio_output@@@2@@__crt_stdio_output@@QEAAHXZ 0000000140029570     libucrt:output.obj
 0004:0000057c       $pdata$?state_case_normal@?$output_processor@DV?$string_output_adapter@D@__crt_stdio_output@@V?$format_validation_base@DV?$string_output_adapter@D@__crt_stdio_output@@@2@@__crt_stdio_output@@AEAA_NXZ 000000014002957c     libucrt:output.obj
 0004:00000588       $pdata$?state_case_normal_tchar@?$output_processor@DV?$string_output_adapter@D@__crt_stdio_output@@V?$format_validation_base@DV?$string_output_adapter@D@__crt_stdio_output@@@2@@__crt_stdio_output@@AEAA_ND@Z 0000000140029588     libucrt:output.obj
 0004:00000594       $pdata$?parse_int_from_format_string@?$output_processor@DV?$string_output_adapter@D@__crt_stdio_output@@V?$format_validation_base@DV?$string_output_adapter@D@__crt_stdio_output@@@2@@__crt_stdio_output@@AEAA_NQEAH@Z 0000000140029594     libucrt:output.obj
 0004:000005a0       $pdata$?state_case_size@?$output_processor@DV?$string_output_adapter@D@__crt_stdio_output@@V?$format_validation_base@DV?$string_output_adapter@D@__crt_stdio_output@@@2@@__crt_stdio_output@@AEAA_NXZ 00000001400295a0     libucrt:output.obj
 0004:000005ac       $pdata$?state_case_type@?$output_processor@DV?$string_output_adapter@D@__crt_stdio_output@@V?$format_validation_base@DV?$string_output_adapter@D@__crt_stdio_output@@@2@@__crt_stdio_output@@AEAA_NXZ 00000001400295ac     libucrt:output.obj
 0004:000005b8       $pdata$?type_case_c_tchar@?$output_processor@DV?$string_output_adapter@D@__crt_stdio_output@@V?$format_validation_base@DV?$string_output_adapter@D@__crt_stdio_output@@@2@@__crt_stdio_output@@AEAA_ND@Z 00000001400295b8     libucrt:output.obj
 0004:000005c4       $pdata$?type_case_s@?$output_processor@DV?$string_output_adapter@D@__crt_stdio_output@@V?$format_validation_base@DV?$string_output_adapter@D@__crt_stdio_output@@@2@@__crt_stdio_output@@AEAA_NXZ 00000001400295c4     libucrt:output.obj
 0004:000005d0       $pdata$?type_case_a@?$output_processor@DV?$string_output_adapter@D@__crt_stdio_output@@V?$format_validation_base@DV?$string_output_adapter@D@__crt_stdio_output@@@2@@__crt_stdio_output@@AEAA_NXZ 00000001400295d0     libucrt:output.obj
 0004:000005dc       $pdata$?type_case_integer@?$output_processor@DV?$string_output_adapter@D@__crt_stdio_output@@V?$format_validation_base@DV?$string_output_adapter@D@__crt_stdio_output@@@2@@__crt_stdio_output@@AEAA_NI_N@Z 00000001400295dc     libucrt:output.obj
 0004:000005e8       $pdata$?type_case_n@?$output_processor@_WV?$string_output_adapter@_W@__crt_stdio_output@@V?$format_validation_base@_WV?$string_output_adapter@_W@__crt_stdio_output@@@2@@__crt_stdio_output@@AEAA_NXZ 00000001400295e8     libucrt:output.obj
 0004:000005e8       $pdata$?type_case_n@?$output_processor@DV?$string_output_adapter@D@__crt_stdio_output@@V?$format_validation_base@DV?$string_output_adapter@D@__crt_stdio_output@@@2@@__crt_stdio_output@@AEAA_NXZ 00000001400295e8     libucrt:output.obj
 0004:000005f4       $pdata$?write_stored_string_tchar@?$output_processor@DV?$string_output_adapter@D@__crt_stdio_output@@V?$format_validation_base@DV?$string_output_adapter@D@__crt_stdio_output@@@2@@__crt_stdio_output@@AEAA_ND@Z 00000001400295f4     libucrt:output.obj
 0004:00000600       $pdata$?process@?$output_processor@_WV?$string_output_adapter@_W@__crt_stdio_output@@V?$format_validation_base@_WV?$string_output_adapter@_W@__crt_stdio_output@@@2@@__crt_stdio_output@@QEAAHXZ 0000000140029600     libucrt:output.obj
 0004:0000060c       $pdata$?parse_int_from_format_string@?$output_processor@_WV?$string_output_adapter@_W@__crt_stdio_output@@V?$format_validation_base@_WV?$string_output_adapter@_W@__crt_stdio_output@@@2@@__crt_stdio_output@@AEAA_NQEAH@Z 000000014002960c     libucrt:output.obj
 0004:00000618       $pdata$?state_case_size@?$output_processor@_WV?$string_output_adapter@_W@__crt_stdio_output@@V?$format_validation_base@_WV?$string_output_adapter@_W@__crt_stdio_output@@@2@@__crt_stdio_output@@AEAA_NXZ 0000000140029618     libucrt:output.obj
 0004:00000624       $pdata$?state_case_type@?$output_processor@_WV?$string_output_adapter@_W@__crt_stdio_output@@V?$format_validation_base@_WV?$string_output_adapter@_W@__crt_stdio_output@@@2@@__crt_stdio_output@@AEAA_NXZ 0000000140029624     libucrt:output.obj
 0004:00000630       $pdata$?type_case_c_tchar@?$output_processor@_WV?$string_output_adapter@_W@__crt_stdio_output@@V?$format_validation_base@_WV?$string_output_adapter@_W@__crt_stdio_output@@@2@@__crt_stdio_output@@AEAA_N_W@Z 0000000140029630     libucrt:output.obj
 0004:0000063c       $pdata$?type_case_Z@?$output_processor@_WV?$string_output_adapter@_W@__crt_stdio_output@@V?$format_validation_base@_WV?$string_output_adapter@_W@__crt_stdio_output@@@2@@__crt_stdio_output@@AEAA_NXZ 000000014002963c     libucrt:output.obj
 0004:00000648       $pdata$?type_case_s@?$output_processor@_WV?$string_output_adapter@_W@__crt_stdio_output@@V?$format_validation_base@_WV?$string_output_adapter@_W@__crt_stdio_output@@@2@@__crt_stdio_output@@AEAA_NXZ 0000000140029648     libucrt:output.obj
 0004:00000654       $pdata$?type_case_a@?$output_processor@_WV?$string_output_adapter@_W@__crt_stdio_output@@V?$format_validation_base@_WV?$string_output_adapter@_W@__crt_stdio_output@@@2@@__crt_stdio_output@@AEAA_NXZ 0000000140029654     libucrt:output.obj
 0004:00000660       $pdata$?type_case_integer@?$output_processor@_WV?$string_output_adapter@_W@__crt_stdio_output@@V?$format_validation_base@_WV?$string_output_adapter@_W@__crt_stdio_output@@@2@@__crt_stdio_output@@AEAA_NI_N@Z 0000000140029660     libucrt:output.obj
 0004:0000066c       $pdata$?write_stored_string_tchar@?$output_processor@_WV?$string_output_adapter@_W@__crt_stdio_output@@V?$format_validation_base@_WV?$string_output_adapter@_W@__crt_stdio_output@@@2@@__crt_stdio_output@@AEAA_N_W@Z 000000014002966c     libucrt:output.obj
 0004:00000678       $pdata$??$type_case_integer_parse_into_buffer@_K@?$output_processor@_WV?$string_output_adapter@_W@__crt_stdio_output@@V?$format_validation_base@_WV?$string_output_adapter@_W@__crt_stdio_output@@@2@@__crt_stdio_output@@AEAAX_KI_N@Z 0000000140029678     libucrt:output.obj
 0004:00000684       $pdata$??$type_case_integer_parse_into_buffer@I@?$output_processor@_WV?$string_output_adapter@_W@__crt_stdio_output@@V?$format_validation_base@_WV?$string_output_adapter@_W@__crt_stdio_output@@@2@@__crt_stdio_output@@AEAAXII_N@Z 0000000140029684     libucrt:output.obj
 0004:00000690       $pdata$??$type_case_integer_parse_into_buffer@_K@?$output_processor@DV?$string_output_adapter@D@__crt_stdio_output@@V?$format_validation_base@DV?$string_output_adapter@D@__crt_stdio_output@@@2@@__crt_stdio_output@@AEAAX_KI_N@Z 0000000140029690     libucrt:output.obj
 0004:0000069c       $pdata$??$type_case_integer_parse_into_buffer@I@?$output_processor@DV?$string_output_adapter@D@__crt_stdio_output@@V?$format_validation_base@DV?$string_output_adapter@D@__crt_stdio_output@@@2@@__crt_stdio_output@@AEAAXII_N@Z 000000014002969c     libucrt:output.obj
 0004:000006a8       $pdata$_itow_s             00000001400296a8     libucrt:xtoa.obj
 0004:000006b4       $pdata$??$common_xtox_s@K_W@@YAHKQEA_W_KI_N@Z 00000001400296b4     libucrt:xtoa.obj
 0004:000006c0       $pdata$??$common_xtox@K_W@@YAHKQEA_W_KI_N@Z 00000001400296c0     libucrt:xtoa.obj
 0004:000006cc       $pdata$wcscpy_s            00000001400296cc     libucrt:wcscpy_s.obj
 0004:000006d8       $pdata$strcpy_s            00000001400296d8     libucrt:strcpy_s.obj
 0004:000006e4       $pdata$strcat_s            00000001400296e4     libucrt:strcat_s.obj
 0004:000006f0       $pdata$_ischartype_l       00000001400296f0     libucrt:atox.obj
 0004:000006fc       $pdata$_wtoi               00000001400296fc     libucrt:atox.obj
 0004:00000708       $pdata$??$parse_integer@KV?$c_string_character_source@D@__crt_strtox@@@__crt_strtox@@YAKQEAU__crt_locale_pointers@@V?$c_string_character_source@D@0@H_N@Z 0000000140029708     libucrt:atox.obj
 0004:00000714       $pdata$??$parse_integer@KV?$c_string_character_source@_W@__crt_strtox@@@__crt_strtox@@YAKQEAU__crt_locale_pointers@@V?$c_string_character_source@_W@0@H_N@Z 0000000140029714     libucrt:atox.obj
 0004:00000720       $pdata$wcscat_s            0000000140029720     libucrt:wcscat_s.obj
 0004:0000072c       $pdata$rand                000000014002972c     libucrt:rand.obj
 0004:00000738       $pdata$_callnewh           0000000140029738     libucrt:new_handler.obj
 0004:00000744       $pdata$_query_new_handler  0000000140029744     libucrt:new_handler.obj
 0004:00000750       $pdata$_query_new_handler$fin$0 0000000140029750     libucrt:new_handler.obj
 0004:0000075c       $pdata$_seh_filter_exe     000000014002975c     libucrt:exception_filter.obj
 0004:00000768       $pdata$_configure_wide_argv 0000000140029768     libucrt:argv_parsing.obj
 0004:00000774       $pdata$__acrt_allocate_buffer_for_argv 0000000140029774     libucrt:argv_parsing.obj
 0004:00000780       $pdata$??$parse_command_line@_W@@YAXPEA_WPEAPEA_W0PEA_K2@Z 0000000140029780     libucrt:argv_parsing.obj
 0004:0000078c       $pdata$__dcrt_uninitialize_environments_nolock 000000014002978c     libucrt:environment_initialization.obj
 0004:00000798       $pdata$??$common_initialize_environment_nolock@_W@@YAHXZ 0000000140029798     libucrt:environment_initialization.obj
 0004:000007a4       $pdata$??$uninitialize_environment_internal@D@@YAXAEAPEAPEAD@Z 00000001400297a4     libucrt:environment_initialization.obj
 0004:000007b0       $pdata$??$uninitialize_environment_internal@_W@@YAXAEAPEAPEA_W@Z 00000001400297b0     libucrt:environment_initialization.obj
 0004:000007bc       $pdata$??$free_environment@D@@YAXQEAPEAD@Z 00000001400297bc     libucrt:environment_initialization.obj
 0004:000007bc       $pdata$??$free_environment@_W@@YAXQEAPEA_W@Z 00000001400297bc     libucrt:environment_initialization.obj
 0004:000007c8       $pdata$??$create_environment@_W@@YAQEAPEA_WQEA_W@Z 00000001400297c8     libucrt:environment_initialization.obj
 0004:000007d4       $pdata$_initterm           00000001400297d4     libucrt:initterm.obj
 0004:000007e0       $pdata$_initterm_e         00000001400297e0     libucrt:initterm.obj
 0004:000007ec       $pdata$_register_thread_local_exe_atexit_callback 00000001400297ec     libucrt:exit.obj
 0004:000007f8       $pdata$?try_cor_exit_process@@YAXI@Z 00000001400297f8     libucrt:exit.obj
 0004:00000804       $pdata$?exit_or_terminate_process@@YAXI@Z 0000000140029804     libucrt:exit.obj
 0004:00000810       $pdata$?common_exit@@YAXHW4_crt_exit_cleanup_mode@@W4_crt_exit_return_mode@@@Z 0000000140029810     libucrt:exit.obj
 0004:0000081c       $pdata$??R<lambda_6e4b09c48022b2350581041d5f6b0c4c>@@QEBA@XZ 000000014002981c     libucrt:exit.obj
 0004:00000828       $pdata$?filt$0@?0???R<lambda_6e4b09c48022b2350581041d5f6b0c4c>@@QEBA@XZ@4HA 0000000140029828     libucrt:exit.obj
 0004:00000834       $pdata$??$?RV<lambda_d80eeec6fff315bfe5c115232f3240e3>@@AEAV<lambda_6e4b09c48022b2350581041d5f6b0c4c>@@V<lambda_2358e3775559c9db80273638284d5e45>@@@?$__crt_seh_guarded_call@X@@QEAAX$$QEAV<lambda_d80eeec6fff315bfe5c115232f3240e3>@@AEAV<lambda_6e4b09c48022b2350581041d5f6b0c4c>@@$$QEAV<lambda_2358e3775559c9db80273638284d5e45>@@@Z 0000000140029834     libucrt:exit.obj
 0004:00000840       $pdata$?fin$0@?0???$?RV<lambda_d80eeec6fff315bfe5c115232f3240e3>@@AEAV<lambda_6e4b09c48022b2350581041d5f6b0c4c>@@V<lambda_2358e3775559c9db80273638284d5e45>@@@?$__crt_seh_guarded_call@X@@QEAAX$$QEAV<lambda_d80eeec6fff315bfe5c115232f3240e3>@@AEAV<lambda_6e4b09c48022b2350581041d5f6b0c4c>@@$$QEAV<lambda_2358e3775559c9db80273638284d5e45>@@@Z@4HA 0000000140029840     libucrt:exit.obj
 0004:00000840       $pdata$?fin$0@?0???$?RV<lambda_450d765d439847d4c735a33c368b5fc0>@@AEAV<lambda_44731a7d0e6d81c3e6aa82d741081786>@@V<lambda_601a2a7da3b7a96e9554ac7215c4b07c>@@@?$__crt_seh_guarded_call@P6AXH@Z@@QEAAP6AXH@Z$$QEAV<lambda_450d765d439847d4c735a33c368b5fc0>@@AEAV<lambda_44731a7d0e6d81c3e6aa82d741081786>@@$$QEAV<lambda_601a2a7da3b7a96e9554ac7215c4b07c>@@@Z@4HA 0000000140029840     libucrt:signal.obj
 0004:00000840       $pdata$?fin$0@?0???$?RV<lambda_aa87e3671a710a21b5dc78c0bdf72e11>@@AEAV<lambda_92619d2358a28f41a33ba319515a20b9>@@V<lambda_6992ecaafeb10aed2b74cb1fae11a551>@@@?$__crt_seh_guarded_call@X@@QEAAX$$QEAV<lambda_aa87e3671a710a21b5dc78c0bdf72e11>@@AEAV<lambda_92619d2358a28f41a33ba319515a20b9>@@$$QEAV<lambda_6992ecaafeb10aed2b74cb1fae11a551>@@@Z@4HA 0000000140029840     libucrt:per_thread_data.obj
 0004:00000840       $pdata$?fin$0@?0???$?RV<lambda_efdfa57d1f175319df784efa44bb7b81>@@AEAV<lambda_5f0a4c1567f8adc6734073e5d1e1b35c>@@V<lambda_2e8a7d3640ea6ccb4c2413664c2db6fd>@@@?$__crt_seh_guarded_call@X@@QEAAX$$QEAV<lambda_efdfa57d1f175319df784efa44bb7b81>@@AEAV<lambda_5f0a4c1567f8adc6734073e5d1e1b35c>@@$$QEAV<lambda_2e8a7d3640ea6ccb4c2413664c2db6fd>@@@Z@4HA 0000000140029840     libucrt:mbctype.obj
 0004:00000840       $pdata$?fin$0@?0???$?RV<lambda_0ae27a3a962d80f24befdcbee591983d>@@AEAV<lambda_8d0ee55de4b1038c4002e0adecdf1839>@@V<lambda_dc504788e8f1664fe9b84e20bfb512f2>@@@?$__crt_seh_guarded_call@X@@QEAAX$$QEAV<lambda_0ae27a3a962d80f24befdcbee591983d>@@AEAV<lambda_8d0ee55de4b1038c4002e0adecdf1839>@@$$QEAV<lambda_dc504788e8f1664fe9b84e20bfb512f2>@@@Z@4HA 0000000140029840     libucrt:per_thread_data.obj
 0004:00000840       $pdata$?fin$0@?0???$?RV<lambda_7777bce6b2f8c936911f934f8298dc43>@@AEAV<lambda_f03950bc5685219e0bcd2087efbe011e>@@V<lambda_3883c3dff614d5e0c5f61bb1ac94921c>@@@?$__crt_seh_guarded_call@H@@QEAAH$$QEAV<lambda_7777bce6b2f8c936911f934f8298dc43>@@AEAV<lambda_f03950bc5685219e0bcd2087efbe011e>@@$$QEAV<lambda_3883c3dff614d5e0c5f61bb1ac94921c>@@@Z@4HA 0000000140029840     libucrt:onexit.obj
 0004:00000840       $pdata$?fin$0@?0???$?RV<lambda_638799b9deba96c50f710eeac98168cd>@@AEAV<lambda_22ebabd17bc4fa466a2aca6d8deb888d>@@V<lambda_a6f7d7db0129f75315ebf26d50c089f1>@@@?$__crt_seh_guarded_call@H@@QEAAH$$QEAV<lambda_638799b9deba96c50f710eeac98168cd>@@AEAV<lambda_22ebabd17bc4fa466a2aca6d8deb888d>@@$$QEAV<lambda_a6f7d7db0129f75315ebf26d50c089f1>@@@Z@4HA 0000000140029840     libucrt:onexit.obj
 0004:00000840       $pdata$?fin$0@?0???$?RV<lambda_f2e299630e499de9f9a165e60fcd3db5>@@AEAV<lambda_2ae9d31cdba2644fcbeaf08da7c24588>@@V<lambda_40d01ff24d0e7b3814fdbdcee8eab3c7>@@@?$__crt_seh_guarded_call@X@@QEAAX$$QEAV<lambda_f2e299630e499de9f9a165e60fcd3db5>@@AEAV<lambda_2ae9d31cdba2644fcbeaf08da7c24588>@@$$QEAV<lambda_40d01ff24d0e7b3814fdbdcee8eab3c7>@@@Z@4HA 0000000140029840     libucrt:per_thread_data.obj
 0004:00000840       $pdata$?fin$0@?0???$?RV<lambda_2d41944a1d46af3157314b8a01080d33>@@AEAV<lambda_8f455de75cd7d7f24b4096f044d8b9e6>@@V<lambda_aa500f224e6afead328df44964fe2772>@@@?$__crt_seh_guarded_call@X@@QEAAX$$QEAV<lambda_2d41944a1d46af3157314b8a01080d33>@@AEAV<lambda_8f455de75cd7d7f24b4096f044d8b9e6>@@$$QEAV<lambda_aa500f224e6afead328df44964fe2772>@@@Z@4HA 0000000140029840     libucrt:per_thread_data.obj
 0004:0000084c       $pdata$_set_fmode          000000014002984c     libucrt:setmode.obj
 0004:00000858       $pdata$_configthreadlocale 0000000140029858     libucrt:wsetlocale.obj
 0004:00000864       $pdata$__acrt_uninitialize_locale 0000000140029864     libucrt:wsetlocale.obj
 0004:00000870       $pdata$??$?RV<lambda_410d79af7f07d98d83a3f525b3859a53>@@AEAV<lambda_3e16ef9562a7dcce91392c22ab16ea36>@@V<lambda_38119f0e861e05405d8a144b9b982f0a>@@@?$__crt_seh_guarded_call@X@@QEAAX$$QEAV<lambda_410d79af7f07d98d83a3f525b3859a53>@@AEAV<lambda_3e16ef9562a7dcce91392c22ab16ea36>@@$$QEAV<lambda_38119f0e861e05405d8a144b9b982f0a>@@@Z 0000000140029870     libucrt:wsetlocale.obj
 0004:0000087c       $pdata$?fin$0@?0???$?RV<lambda_410d79af7f07d98d83a3f525b3859a53>@@AEAV<lambda_3e16ef9562a7dcce91392c22ab16ea36>@@V<lambda_38119f0e861e05405d8a144b9b982f0a>@@@?$__crt_seh_guarded_call@X@@QEAAX$$QEAV<lambda_410d79af7f07d98d83a3f525b3859a53>@@AEAV<lambda_3e16ef9562a7dcce91392c22ab16ea36>@@$$QEAV<lambda_38119f0e861e05405d8a144b9b982f0a>@@@Z@4HA 000000014002987c     libucrt:wsetlocale.obj
 0004:00000888       $pdata$_set_new_mode       0000000140029888     libucrt:new_mode.obj
 0004:00000894       $pdata$_register_onexit_function 0000000140029894     libucrt:onexit.obj
 0004:000008a0       $pdata$_execute_onexit_table 00000001400298a0     libucrt:onexit.obj
 0004:000008ac       $pdata$??R<lambda_22ebabd17bc4fa466a2aca6d8deb888d>@@QEBAHXZ 00000001400298ac     libucrt:onexit.obj
 0004:000008b8       $pdata$??R<lambda_f03950bc5685219e0bcd2087efbe011e>@@QEBAHXZ 00000001400298b8     libucrt:onexit.obj
 0004:000008c4       $pdata$??$?RV<lambda_638799b9deba96c50f710eeac98168cd>@@AEAV<lambda_22ebabd17bc4fa466a2aca6d8deb888d>@@V<lambda_a6f7d7db0129f75315ebf26d50c089f1>@@@?$__crt_seh_guarded_call@H@@QEAAH$$QEAV<lambda_638799b9deba96c50f710eeac98168cd>@@AEAV<lambda_22ebabd17bc4fa466a2aca6d8deb888d>@@$$QEAV<lambda_a6f7d7db0129f75315ebf26d50c089f1>@@@Z 00000001400298c4     libucrt:onexit.obj
 0004:000008d0       $pdata$??$?RV<lambda_7777bce6b2f8c936911f934f8298dc43>@@AEAV<lambda_f03950bc5685219e0bcd2087efbe011e>@@V<lambda_3883c3dff614d5e0c5f61bb1ac94921c>@@@?$__crt_seh_guarded_call@H@@QEAAH$$QEAV<lambda_7777bce6b2f8c936911f934f8298dc43>@@AEAV<lambda_f03950bc5685219e0bcd2087efbe011e>@@$$QEAV<lambda_3883c3dff614d5e0c5f61bb1ac94921c>@@@Z 00000001400298d0     libucrt:onexit.obj
 0004:000008dc       $pdata$__acrt_uninitialize 00000001400298dc     libucrt:initialization.obj
 0004:000008e8       $pdata$initialize_c        00000001400298e8     libucrt:initialization.obj
 0004:000008f4       $pdata$uninitialize_environment 00000001400298f4     libucrt:initialization.obj
 0004:00000900       $pdata$initialize_pointers 0000000140029900     libucrt:initialization.obj
 0004:0000090c       $pdata$uninitialize_allocated_memory 000000014002990c     libucrt:initialization.obj
 0004:00000918       $pdata$uninitialize_allocated_io_buffers 0000000140029918     libucrt:initialization.obj
 0004:00000924       $pdata$terminate           0000000140029924     libucrt:terminate.obj
 0004:00000930       $pdata$_wcsupr             0000000140029930     libucrt:wcsupr.obj
 0004:0000093c       $pdata$_wcsupr_s_l         000000014002993c     libucrt:wcsupr.obj
 0004:00000948       $pdata$?_wcsupr_s_l_stat@@YAHQEA_W_KQEAU__crt_locale_pointers@@@Z 0000000140029948     libucrt:wcsupr.obj
 0004:00000954       $pdata$abort               0000000140029954     libucrt:abort.obj
 0004:0000096c       $pdata$_invalid_parameter_noinfo 000000014002996c     libucrt:invalid_parameter.obj
 0004:00000978       $pdata$_invoke_watson      0000000140029978     libucrt:invalid_parameter.obj
 0004:00000984       $pdata$__acrt_call_reportfault 0000000140029984     libucrt:invalid_parameter.obj
 0004:00000990       $pdata$_invalid_parameter  0000000140029990     libucrt:invalid_parameter.obj
 0004:0000099c       $pdata$_errno              000000014002999c     libucrt:errno.obj
 0004:000009a8       $pdata$__doserrno          00000001400299a8     libucrt:errno.obj
 0004:000009b4       $pdata$__acrt_errno_map_os_error 00000001400299b4     libucrt:errno.obj
 0004:000009c0       $pdata$_free_base          00000001400299c0     libucrt:free_base.obj
 0004:000009cc       $pdata$_malloc_base        00000001400299cc     libucrt:malloc_base.obj
 0004:000009d8       $pdata$wcstol              00000001400299d8     libucrt:strtox.obj
 0004:000009e4       $pdata$strtol              00000001400299e4     libucrt:strtox.obj
 0004:000009f0       $pdata$_mbtowc_l           00000001400299f0     libucrt:mbtowc.obj
 0004:000009fc       $pdata$wctomb_s            00000001400299fc     libucrt:wctomb.obj
 0004:00000a08       $pdata$_wctomb_s_l         0000000140029a08     libucrt:wctomb.obj
 0004:00000a14       $pdata$__acrt_initialize_ptd 0000000140029a14     libucrt:per_thread_data.obj
 0004:00000a20       $pdata$__acrt_uninitialize_ptd 0000000140029a20     libucrt:per_thread_data.obj
 0004:00000a2c       $pdata$__acrt_getptd       0000000140029a2c     libucrt:per_thread_data.obj
 0004:00000a38       $pdata$__acrt_getptd_head  0000000140029a38     libucrt:per_thread_data.obj
 0004:00000a44       $pdata$__acrt_getptd_noexit 0000000140029a44     libucrt:per_thread_data.obj
 0004:00000a50       $pdata$?destroy_fls@@YAXPEAX@Z 0000000140029a50     libucrt:per_thread_data.obj
 0004:00000a5c       $pdata$?replace_current_thread_locale_nolock@@YAXQEAU__acrt_ptd@@QEAU__crt_locale_data@@@Z 0000000140029a5c     libucrt:per_thread_data.obj
 0004:00000a68       $pdata$?construct_ptd_array@@YAXQEAU__acrt_ptd@@@Z 0000000140029a68     libucrt:per_thread_data.obj
 0004:00000a74       $pdata$?destroy_ptd_array@@YAXQEAU__acrt_ptd@@@Z 0000000140029a74     libucrt:per_thread_data.obj
 0004:00000a80       $pdata$??$?RV<lambda_0ae27a3a962d80f24befdcbee591983d>@@AEAV<lambda_8d0ee55de4b1038c4002e0adecdf1839>@@V<lambda_dc504788e8f1664fe9b84e20bfb512f2>@@@?$__crt_seh_guarded_call@X@@QEAAX$$QEAV<lambda_0ae27a3a962d80f24befdcbee591983d>@@AEAV<lambda_8d0ee55de4b1038c4002e0adecdf1839>@@$$QEAV<lambda_dc504788e8f1664fe9b84e20bfb512f2>@@@Z 0000000140029a80     libucrt:per_thread_data.obj
 0004:00000a8c       $pdata$??$?RV<lambda_aa87e3671a710a21b5dc78c0bdf72e11>@@AEAV<lambda_92619d2358a28f41a33ba319515a20b9>@@V<lambda_6992ecaafeb10aed2b74cb1fae11a551>@@@?$__crt_seh_guarded_call@X@@QEAAX$$QEAV<lambda_aa87e3671a710a21b5dc78c0bdf72e11>@@AEAV<lambda_92619d2358a28f41a33ba319515a20b9>@@$$QEAV<lambda_6992ecaafeb10aed2b74cb1fae11a551>@@@Z 0000000140029a8c     libucrt:per_thread_data.obj
 0004:00000a98       $pdata$??$?RV<lambda_f2e299630e499de9f9a165e60fcd3db5>@@AEAV<lambda_2ae9d31cdba2644fcbeaf08da7c24588>@@V<lambda_40d01ff24d0e7b3814fdbdcee8eab3c7>@@@?$__crt_seh_guarded_call@X@@QEAAX$$QEAV<lambda_f2e299630e499de9f9a165e60fcd3db5>@@AEAV<lambda_2ae9d31cdba2644fcbeaf08da7c24588>@@$$QEAV<lambda_40d01ff24d0e7b3814fdbdcee8eab3c7>@@@Z 0000000140029a98     libucrt:per_thread_data.obj
 0004:00000aa4       $pdata$??$?RV<lambda_2d41944a1d46af3157314b8a01080d33>@@AEAV<lambda_8f455de75cd7d7f24b4096f044d8b9e6>@@V<lambda_aa500f224e6afead328df44964fe2772>@@@?$__crt_seh_guarded_call@X@@QEAAX$$QEAV<lambda_2d41944a1d46af3157314b8a01080d33>@@AEAV<lambda_8f455de75cd7d7f24b4096f044d8b9e6>@@$$QEAV<lambda_aa500f224e6afead328df44964fe2772>@@@Z 0000000140029aa4     libucrt:per_thread_data.obj
 0004:00000ab0       $pdata$__acrt_update_locale_info 0000000140029ab0     libucrt:locale_update.obj
 0004:00000abc       $pdata$__acrt_update_multibyte_info 0000000140029abc     libucrt:locale_update.obj
 0004:00000ac8       $pdata$__acrt_fp_format    0000000140029ac8     libucrt:cvt.obj
 0004:00000ad4       $pdata$?fp_format_e_internal@@YAHQEAD_KH_NIQEAU_strflt@@2QEAU__crt_locale_pointers@@@Z 0000000140029ad4     libucrt:cvt.obj
 0004:00000ae0       $pdata$?fp_format_e@@YAHQEBNQEAD_K12H_NIQEAU__crt_locale_pointers@@@Z 0000000140029ae0     libucrt:cvt.obj
 0004:00000aec       $pdata$?fp_format_a@@YAHQEBNPEAD_KQEAD2H_NIQEAU__crt_locale_pointers@@@Z 0000000140029aec     libucrt:cvt.obj
 0004:00000af8       $pdata$?fp_format_f_internal@@YAHQEAD_KHQEAU_strflt@@_NQEAU__crt_locale_pointers@@@Z 0000000140029af8     libucrt:cvt.obj
 0004:00000b04       $pdata$?fp_format_g@@YAHQEBNQEAD_K12H_NIQEAU__crt_locale_pointers@@@Z 0000000140029b04     libucrt:cvt.obj
 0004:00000b10       $pdata$_fileno             0000000140029b10     libucrt:fileno.obj
 0004:00000b1c       $pdata$__acrt_initialize_stdio 0000000140029b1c     libucrt:_file.obj
 0004:00000b28       $pdata$__acrt_uninitialize_stdio 0000000140029b28     libucrt:_file.obj
 0004:00000b34       $pdata$__acrt_initialize_lowio 0000000140029b34     libucrt:ioinit.obj
 0004:00000b40       $pdata$__acrt_initialize_lowio$fin$0 0000000140029b40     libucrt:ioinit.obj
 0004:00000b40       $pdata$__acrt_lowio_ensure_fh_exists$fin$0 0000000140029b40     libucrt:osfinfo.obj
 0004:00000b4c       $pdata$__acrt_uninitialize_lowio 0000000140029b4c     libucrt:ioinit.obj
 0004:00000b58       $pdata$?initialize_inherited_file_handles_nolock@@YAXXZ 0000000140029b58     libucrt:ioinit.obj
 0004:00000b64       $pdata$?initialize_stdio_handles_nolock@@YAXXZ 0000000140029b64     libucrt:ioinit.obj
 0004:00000b70       $pdata$__pctype_func       0000000140029b70     libucrt:ctype.obj
 0004:00000b7c       $pdata$iswctype            0000000140029b7c     libucrt:iswctype.obj
 0004:00000b88       $pdata$_isctype_l          0000000140029b88     libucrt:isctype.obj
 0004:00000b94       $pdata$__acrt_initialize_locks 0000000140029b94     libucrt:locks.obj
 0004:00000ba0       $pdata$__acrt_uninitialize_locks 0000000140029ba0     libucrt:locks.obj
 0004:00000bac       $pdata$wcsncpy_s           0000000140029bac     libucrt:wcsncpy_s.obj
 0004:00000bb8       $pdata$_calloc_base        0000000140029bb8     libucrt:calloc_base.obj
 0004:00000bc4       $pdata$??$common_expand_argv_wildcards@_W@@YAHQEAPEA_WQEAPEAPEA_W@Z 0000000140029bc4     libucrt:argv_wildcards.obj
 0004:00000bd0       $pdata$??$copy_and_add_argument_to_buffer@_W@@YAHQEB_W0_KAEAV?$argument_list@_W@?A0x5f5c8891@@@Z 0000000140029bd0     libucrt:argv_wildcards.obj
 0004:00000bdc       $pdata$__acrt_update_thread_multibyte_data 0000000140029bdc     libucrt:mbctype.obj
 0004:00000be8       $pdata$__acrt_initialize_multibyte 0000000140029be8     libucrt:mbctype.obj
 0004:00000bf4       $pdata$_setmbcp_nolock     0000000140029bf4     libucrt:mbctype.obj
 0004:00000c00       $pdata$?getSystemCP@@YAHH@Z 0000000140029c00     libucrt:mbctype.obj
 0004:00000c0c       $pdata$?setSBCS@@YAXPEAU__crt_multibyte_data@@@Z 0000000140029c0c     libucrt:mbctype.obj
 0004:00000c18       $pdata$?update_thread_multibyte_data_internal@@YAPEAU__crt_multibyte_data@@QEAU__acrt_ptd@@QEAPEAU1@@Z 0000000140029c18     libucrt:mbctype.obj
 0004:00000c24       $pdata$?fin$0@?0??update_thread_multibyte_data_internal@@YAPEAU__crt_multibyte_data@@QEAU__acrt_ptd@@QEAPEAU1@@Z@4HA 0000000140029c24     libucrt:mbctype.obj
 0004:00000c30       $pdata$?setmbcp_internal@@YAHH_NQEAU__acrt_ptd@@QEAPEAU__crt_multibyte_data@@@Z 0000000140029c30     libucrt:mbctype.obj
 0004:00000c3c       $pdata$?setSBUpLow@@YAXPEAU__crt_multibyte_data@@@Z 0000000140029c3c     libucrt:mbctype.obj
 0004:00000c48       $pdata$??$?RV<lambda_efdfa57d1f175319df784efa44bb7b81>@@AEAV<lambda_5f0a4c1567f8adc6734073e5d1e1b35c>@@V<lambda_2e8a7d3640ea6ccb4c2413664c2db6fd>@@@?$__crt_seh_guarded_call@X@@QEAAX$$QEAV<lambda_efdfa57d1f175319df784efa44bb7b81>@@AEAV<lambda_5f0a4c1567f8adc6734073e5d1e1b35c>@@$$QEAV<lambda_2e8a7d3640ea6ccb4c2413664c2db6fd>@@@Z 0000000140029c48     libucrt:mbctype.obj
 0004:00000c54       $pdata$__acrt_initialize_command_line 0000000140029c54     libucrt:argv_data.obj
 0004:00000c60       $pdata$__acrt_WideCharToMultiByte 0000000140029c60     libucrt:widechartomultibyte.obj
 0004:00000c6c       $pdata$__dcrt_get_wide_environment_from_os 0000000140029c6c     libucrt:get_environment_from_os.obj
 0004:00000c78       $pdata$__acrt_get_process_end_policy 0000000140029c78     libucrt:win_policies.obj
 0004:00000c84       $pdata$_get_osfhandle      0000000140029c84     libucrt:osfinfo.obj
 0004:00000c90       $pdata$_free_osfhnd        0000000140029c90     libucrt:osfinfo.obj
 0004:00000c9c       $pdata$__acrt_lowio_create_handle_array 0000000140029c9c     libucrt:osfinfo.obj
 0004:00000ca8       $pdata$__acrt_lowio_destroy_handle_array 0000000140029ca8     libucrt:osfinfo.obj
 0004:00000cb4       $pdata$__acrt_lowio_ensure_fh_exists 0000000140029cb4     libucrt:osfinfo.obj
 0004:00000cc0       $pdata$__acrt_locale_free_monetary 0000000140029cc0     libucrt:initmon.obj
 0004:00000ccc       $pdata$__acrt_locale_free_numeric 0000000140029ccc     libucrt:initnum.obj
 0004:00000cd8       $pdata$__acrt_locale_free_time 0000000140029cd8     libucrt:inittime.obj
 0004:00000ce4       $pdata$?free_crt_array_internal@@YAXQEAPEBX_K@Z 0000000140029ce4     libucrt:inittime.obj
 0004:00000cf0       $pdata$__acrt_GetStringTypeA 0000000140029cf0     libucrt:getstringtypea.obj
 0004:00000cfc       $pdata$__acrt_release_locale_ref 0000000140029cfc     libucrt:locale_refcounting.obj
 0004:00000d08       $pdata$__acrt_free_locale  0000000140029d08     libucrt:locale_refcounting.obj
 0004:00000d14       $pdata$__acrt_locale_free_lc_time_if_unreferenced 0000000140029d14     libucrt:locale_refcounting.obj
 0004:00000d20       $pdata$__acrt_update_thread_locale_data 0000000140029d20     libucrt:locale_refcounting.obj
 0004:00000d2c       $pdata$__acrt_update_thread_locale_data$fin$0 0000000140029d2c     libucrt:locale_refcounting.obj
 0004:00000d38       $pdata$_updatetlocinfoEx_nolock 0000000140029d38     libucrt:locale_refcounting.obj
 0004:00000d44       $pdata$__acrt_initialize_winapi_thunks 0000000140029d44     libucrt:winapi_thunks.obj
 0004:00000d50       $pdata$__acrt_uninitialize_winapi_thunks 0000000140029d50     libucrt:winapi_thunks.obj
 0004:00000d5c       $pdata$__acrt_FlsAlloc     0000000140029d5c     libucrt:winapi_thunks.obj
 0004:00000d68       $pdata$__acrt_FlsFree      0000000140029d68     libucrt:winapi_thunks.obj
 0004:00000d74       $pdata$__acrt_FlsGetValue  0000000140029d74     libucrt:winapi_thunks.obj
 0004:00000d80       $pdata$__acrt_FlsSetValue  0000000140029d80     libucrt:winapi_thunks.obj
 0004:00000d8c       $pdata$__acrt_InitializeCriticalSectionEx 0000000140029d8c     libucrt:winapi_thunks.obj
 0004:00000d98       $pdata$__acrt_LCMapStringEx 0000000140029d98     libucrt:winapi_thunks.obj
 0004:00000da4       $pdata$__acrt_LocaleNameToLCID 0000000140029da4     libucrt:winapi_thunks.obj
 0004:00000db0       $pdata$__acrt_AppPolicyGetProcessTerminationMethodInternal 0000000140029db0     libucrt:winapi_thunks.obj
 0004:00000dbc       $pdata$?try_get_function@@YAPEAXW4function_id@?A0x391cf84c@@QEBDQEBW4module_id@2@2@Z 0000000140029dbc     libucrt:winapi_thunks.obj
 0004:00000dc8       $pdata$_recalloc_base      0000000140029dc8     libucrt:recalloc.obj
 0004:00000dd4       $pdata$__acrt_initialize_heap 0000000140029dd4     libucrt:heap_handle.obj
 0004:00000de0       $pdata$__acrt_execute_initializers 0000000140029de0     libucrt:shared_initialization.obj
 0004:00000dec       $pdata$__acrt_execute_uninitializers 0000000140029dec     libucrt:shared_initialization.obj
 0004:00000df8       $pdata$__acrt_get_sigabrt_handler 0000000140029df8     libucrt:signal.obj
 0004:00000e04       $pdata$raise               0000000140029e04     libucrt:signal.obj
 0004:00000e10       $pdata$raise$fin$0         0000000140029e10     libucrt:signal.obj
 0004:00000e1c       $pdata$??$?RV<lambda_450d765d439847d4c735a33c368b5fc0>@@AEAV<lambda_44731a7d0e6d81c3e6aa82d741081786>@@V<lambda_601a2a7da3b7a96e9554ac7215c4b07c>@@@?$__crt_seh_guarded_call@P6AXH@Z@@QEAAP6AXH@Z$$QEAV<lambda_450d765d439847d4c735a33c368b5fc0>@@AEAV<lambda_44731a7d0e6d81c3e6aa82d741081786>@@$$QEAV<lambda_601a2a7da3b7a96e9554ac7215c4b07c>@@@Z 0000000140029e1c     libucrt:signal.obj
 0004:00000e28       $pdata$_fflush_nolock      0000000140029e28     libucrt:fflush.obj
 0004:00000e34       $pdata$__acrt_stdio_flush_nolock 0000000140029e34     libucrt:fflush.obj
 0004:00000e40       $pdata$?common_flush_all@@YAH_N@Z 0000000140029e40     libucrt:fflush.obj
 0004:00000e4c       $pdata$??$?RV<lambda_842d9ff0dc9ef11c61343bbaebe7f885>@@AEAV<lambda_c5860995281e5c4ce005b3de8f5874ee>@@V<lambda_d90129c13df834fdcbf8d2b88dafcf2d>@@@?$__crt_seh_guarded_call@X@@QEAAX$$QEAV<lambda_842d9ff0dc9ef11c61343bbaebe7f885>@@AEAV<lambda_c5860995281e5c4ce005b3de8f5874ee>@@$$QEAV<lambda_d90129c13df834fdcbf8d2b88dafcf2d>@@@Z 0000000140029e4c     libucrt:fflush.obj
 0004:00000e58       $pdata$?fin$0@?0???$?RV<lambda_842d9ff0dc9ef11c61343bbaebe7f885>@@AEAV<lambda_c5860995281e5c4ce005b3de8f5874ee>@@V<lambda_d90129c13df834fdcbf8d2b88dafcf2d>@@@?$__crt_seh_guarded_call@X@@QEAAX$$QEAV<lambda_842d9ff0dc9ef11c61343bbaebe7f885>@@AEAV<lambda_c5860995281e5c4ce005b3de8f5874ee>@@$$QEAV<lambda_d90129c13df834fdcbf8d2b88dafcf2d>@@@Z@4HA 0000000140029e58     libucrt:fflush.obj
 0004:00000e64       $pdata$??$?RV<lambda_886d6c58226a84441f68b9f2b8217b83>@@AEAV<lambda_ab61a845afdef5b7c387490eaf3616ee>@@V<lambda_f7f22ab5edc0698d5f6905b0d3f44752>@@@?$__crt_seh_guarded_call@X@@QEAAX$$QEAV<lambda_886d6c58226a84441f68b9f2b8217b83>@@AEAV<lambda_ab61a845afdef5b7c387490eaf3616ee>@@$$QEAV<lambda_f7f22ab5edc0698d5f6905b0d3f44752>@@@Z 0000000140029e64     libucrt:fflush.obj
 0004:00000e70       $pdata$?fin$0@?0???$?RV<lambda_886d6c58226a84441f68b9f2b8217b83>@@AEAV<lambda_ab61a845afdef5b7c387490eaf3616ee>@@V<lambda_f7f22ab5edc0698d5f6905b0d3f44752>@@@?$__crt_seh_guarded_call@X@@QEAAX$$QEAV<lambda_886d6c58226a84441f68b9f2b8217b83>@@AEAV<lambda_ab61a845afdef5b7c387490eaf3616ee>@@$$QEAV<lambda_f7f22ab5edc0698d5f6905b0d3f44752>@@@Z@4HA 0000000140029e70     libucrt:fflush.obj
 0004:00000e7c       $pdata$__acrt_LCMapStringW 0000000140029e7c     libucrt:lcmapstringw.obj
 0004:00000e88       $pdata$_isleadbyte_l       0000000140029e88     libucrt:_wctype.obj
 0004:00000e94       $pdata$?__mbrtowc_utf8@__crt_mbstring@@YA_KPEA_WPEBD_KPEAU_Mbstatet@@@Z 0000000140029e94     libucrt:mbrtowc.obj
 0004:00000ea0       $pdata$?__mbsrtowcs_utf8@__crt_mbstring@@YA_KPEA_WPEAPEBD_KPEAU_Mbstatet@@@Z 0000000140029ea0     libucrt:mbrtowc.obj
 0004:00000eac       $pdata$?__c32rtomb_utf8@__crt_mbstring@@YA_KPEAD_UPEAU_Mbstatet@@@Z 0000000140029eac     libucrt:c32rtomb.obj
 0004:00000eb8       $pdata$__acrt_fp_strflt_to_string 0000000140029eb8     libucrt:_fptostr.obj
 0004:00000ec4       $pdata$memcpy_s            0000000140029ec4     libucrt:cfout.obj
 0004:00000ed0       $pdata$__acrt_fltout       0000000140029ed0     libucrt:cfout.obj
 0004:00000edc       $pdata$?divide@__crt_strtox@@YA_KAEAUbig_integer@1@AEBU21@@Z 0000000140029edc     libucrt:cfout.obj
 0004:00000ee8       $pdata$0$?divide@__crt_strtox@@YA_KAEAUbig_integer@1@AEBU21@@Z 0000000140029ee8     libucrt:cfout.obj
 0004:00000ef4       $pdata$1$?divide@__crt_strtox@@YA_KAEAUbig_integer@1@AEBU21@@Z 0000000140029ef4     libucrt:cfout.obj
 0004:00000f00       $pdata$_fcloseall          0000000140029f00     libucrt:closeall.obj
 0004:00000f0c       $pdata$_fcloseall$fin$0    0000000140029f0c     libucrt:closeall.obj
 0004:00000f18       $pdata$__acrt_stdio_free_buffer_nolock 0000000140029f18     libucrt:_freebuf.obj
 0004:00000f24       $pdata$_isatty             0000000140029f24     libucrt:isatty.obj
 0004:00000f30       $pdata$qsort               0000000140029f30     libucrt:qsort.obj
 0004:00000f3c       $pdata$4$qsort             0000000140029f3c     libucrt:qsort.obj
 0004:00000f48       $pdata$5$qsort             0000000140029f48     libucrt:qsort.obj
 0004:00000f54       $pdata$__acrt_LCMapStringA 0000000140029f54     libucrt:lcmapstringa.obj
 0004:00000f60       $pdata$?__acrt_LCMapStringA_stat@@YAHPEAU__crt_locale_pointers@@PEB_WKPEBDHPEADHHH@Z 0000000140029f60     libucrt:lcmapstringa.obj
 0004:00000f6c       $pdata$?initialize_multibyte@@YAHXZ 0000000140029f6c     libucrt:multibyte_initializer.obj
 0004:00000f78       $pdata$__acrt_DownlevelLocaleNameToLCID 0000000140029f78     libucrt:lcidtoname_downlevel.obj
 0004:00000f84       $pdata$_msize_base         0000000140029f84     libucrt:msize.obj
 0004:00000f90       $pdata$_realloc_base       0000000140029f90     libucrt:realloc_base.obj
 0004:00000f9c       $pdata$_commit             0000000140029f9c     libucrt:commit.obj
 0004:00000fa8       $pdata$??$?RV<lambda_a37b2b86f63e897a80ea819b0eb08c01>@@AEAV<lambda_38ce7e780aa69e748d6df282ebc68efe>@@V<lambda_99fb1378e971ab6e7edea83e3a7a83a2>@@@?$__crt_seh_guarded_call@H@@QEAAH$$QEAV<lambda_a37b2b86f63e897a80ea819b0eb08c01>@@AEAV<lambda_38ce7e780aa69e748d6df282ebc68efe>@@$$QEAV<lambda_99fb1378e971ab6e7edea83e3a7a83a2>@@@Z 0000000140029fa8     libucrt:commit.obj
 0004:00000fb4       $pdata$?fin$0@?0???$?RV<lambda_a37b2b86f63e897a80ea819b0eb08c01>@@AEAV<lambda_38ce7e780aa69e748d6df282ebc68efe>@@V<lambda_99fb1378e971ab6e7edea83e3a7a83a2>@@@?$__crt_seh_guarded_call@H@@QEAAH$$QEAV<lambda_a37b2b86f63e897a80ea819b0eb08c01>@@AEAV<lambda_38ce7e780aa69e748d6df282ebc68efe>@@$$QEAV<lambda_99fb1378e971ab6e7edea83e3a7a83a2>@@@Z@4HA 0000000140029fb4     libucrt:commit.obj
 0004:00000fb4       $pdata$?fin$0@?0???$?RV<lambda_751a882b2c74d4b022dec766aa51a29a>@@AEAV<lambda_628dfdc04ba53c8bfc02c9951375f3f5>@@V<lambda_f6c7be5f7998530c34de24c7437d6b54>@@@?$__crt_seh_guarded_call@H@@QEAAH$$QEAV<lambda_751a882b2c74d4b022dec766aa51a29a>@@AEAV<lambda_628dfdc04ba53c8bfc02c9951375f3f5>@@$$QEAV<lambda_f6c7be5f7998530c34de24c7437d6b54>@@@Z@4HA 0000000140029fb4     libucrt:close.obj
 0004:00000fc0       $pdata$_write              0000000140029fc0     libucrt:write.obj
 0004:00000fcc       $pdata$_write$fin$0        0000000140029fcc     libucrt:write.obj
 0004:00000fd8       $pdata$_write_nolock       0000000140029fd8     libucrt:write.obj
 0004:00000fe4       $pdata$?write_double_translated_ansi_nolock@@YA?AUwrite_result@?A0x17268360@@HQEBDI@Z 0000000140029fe4     libucrt:write.obj
 0004:00000ff0       $pdata$?write_text_ansi_nolock@@YA?AUwrite_result@?A0x17268360@@HQEBDI@Z 0000000140029ff0     libucrt:write.obj
 0004:00000ffc       $pdata$?write_text_utf16le_nolock@@YA?AUwrite_result@?A0x17268360@@HQEBDI@Z 0000000140029ffc     libucrt:write.obj
 0004:00001008       $pdata$?write_text_utf8_nolock@@YA?AUwrite_result@?A0x17268360@@HQEBDI@Z 000000014002a008     libucrt:write.obj
 0004:00001014       $pdata$?__mbrtoc32_utf8@__crt_mbstring@@YA_KPEA_UPEBD_KPEAU_Mbstatet@@@Z 000000014002a014     libucrt:mbrtoc32.obj
 0004:00001020       $pdata$fegetenv            000000014002a020     libucrt:fegetenv.obj
 0004:0000102c       $pdata$fesetenv            000000014002a02c     libucrt:fesetenv.obj
 0004:00001038       $pdata$feholdexcept        000000014002a038     libucrt:feholdexcept.obj
 0004:00001050       $pdata$??$common_lseek_nolock@_J@@YA_JH_JH@Z 000000014002a050     libucrt:lseek.obj
 0004:0000105c       $pdata$fclose              000000014002a05c     libucrt:fclose.obj
 0004:00001068       $pdata$fclose$fin$0        000000014002a068     libucrt:fclose.obj
 0004:00001074       $pdata$_fclose_nolock      000000014002a074     libucrt:fclose.obj
 0004:00001080       $pdata$_putwch_nolock      000000014002a080     libucrt:putwch.obj
 0004:0000108c       $pdata$__acrt_fenv_set_control 000000014002a08c     libucrt:_fenvutils.obj
 0004:00001098       $pdata$_clearfp            000000014002a098     libucrt:ieee.obj
 0004:000010a4       $pdata$_call_matherr       000000014002a0a4     libucrt:libm_error.obj
 0004:000010b0       $pdata$_exception_enabled  000000014002a0b0     libucrt:libm_error.obj
 0004:000010bc       $pdata$_handle_error       000000014002a0bc     libucrt:libm_error.obj
 0004:000010c8       $pdata$__acrt_initialize_fma3 000000014002a0c8     libucrt:fma3_available.obj
 0004:000010d4       $pdata$_log_special_common 000000014002a0d4     libucrt:log_special.obj
 0004:000010e0       $pdata$_log10_special      000000014002a0e0     libucrt:log_special.obj
 0004:000010ec       $pdata$_close              000000014002a0ec     libucrt:close.obj
 0004:000010f8       $pdata$_close_nolock       000000014002a0f8     libucrt:close.obj
 0004:00001104       $pdata$??$?RV<lambda_751a882b2c74d4b022dec766aa51a29a>@@AEAV<lambda_628dfdc04ba53c8bfc02c9951375f3f5>@@V<lambda_f6c7be5f7998530c34de24c7437d6b54>@@@?$__crt_seh_guarded_call@H@@QEAAH$$QEAV<lambda_751a882b2c74d4b022dec766aa51a29a>@@AEAV<lambda_628dfdc04ba53c8bfc02c9951375f3f5>@@$$QEAV<lambda_f6c7be5f7998530c34de24c7437d6b54>@@@Z 000000014002a104     libucrt:close.obj
 0004:00001110       $pdata$__dcrt_lowio_ensure_console_output_initialized 000000014002a110     libucrt:initcon.obj
 0004:0000111c       $pdata$__dcrt_write_console 000000014002a11c     libucrt:initcon.obj
 0004:00001128       $pdata$__dcrt_terminate_console_output 000000014002a128     libucrt:initcon.obj
 0004:00001140       $pdata$_set_errno_from_matherr 000000014002a140     libucrt:fpexcept.obj
 0004:0000114c       $pdata$_raise_exc          000000014002a14c     libucrt:fpexcept.obj
 0004:00001158       $pdata$_raise_exc_ex       000000014002a158     libucrt:fpexcept.obj
 0004:00001164       $pdata$_clrfp              000000014002a164     libucrt:fpctrl.obj
 0004:00001170       $pdata$_ctrlfp             000000014002a170     libucrt:fpctrl.obj
 0004:0000117c       $pdata$_ctrlfp$filt$0      000000014002a17c     libucrt:fpctrl.obj
 0004:00001188       $pdata$_statfp             000000014002a188     libucrt:fpctrl.obj
 0004:00001194       $pdata$_set_statfp         000000014002a194     libucrt:fpctrl.obj
 0004:000011a0       $pdata$__GSHandlerCheckCommon 000000014002a1a0     LIBCMT:gshandler.obj
 0004:000011ac       $pdata$__GSHandlerCheck    000000014002a1ac     LIBCMT:gshandler.obj
 0004:000011c4       $pdata$_IsNonwritableInCurrentImage 000000014002a1c4     LIBCMT:pesect.obj
 0004:000011d0       $pdata$_IsNonwritableInCurrentImage$filt$0 000000014002a1d0     LIBCMT:pesect.obj
 0004:000011dc       $pdata$__report_gsfailure  000000014002a1dc     LIBCMT:gs_report.obj
 0004:000011e8       $pdata$capture_previous_context 000000014002a1e8     LIBCMT:gs_report.obj
 0004:000011f4       $pdata$__raise_securityfailure 000000014002a1f4     LIBCMT:gs_report.obj
 0004:00001218       $pdata$strrchr             000000014002a218     libvcruntime:strrchr.obj
 0004:00001224       $pdata$wWinMain            000000014002a224     DUI_ShellcodeX.obj
 0004:00001230       $pdata$??_GWindowImplBase@DuiLib@@UEAAPEAXI@Z 000000014002a230     MainWnd.obj
 0004:0000123c       $pdata$??1WindowImplBase@DuiLib@@UEAA@XZ 000000014002a23c     MainWnd.obj
 0004:00001248       $pdata$_snwprintf_s        000000014002a248     MainWnd.obj
 0004:00001254       $pdata$sprintf_s           000000014002a254     MainWnd.obj
 0004:00001260       $pdata$?OnTestExecSc@CMainWnd@@AEAAXXZ 000000014002a260     MainWnd.obj
 0004:0000126c       $pdata$?OnShellcodeWriteFuns@CMainWnd@@AEAAXXZ 000000014002a26c     MainWnd.obj
 0004:00001278       $pdata$?OnShellcodeRandomFuns@CMainWnd@@AEAAXXZ 000000014002a278     MainWnd.obj
 0004:00001284       $pdata$?dtor$1@?0??OnShellcodeRandomFuns@CMainWnd@@AEAAXXZ@4HA 000000014002a284     MainWnd.obj
 0004:00001290       $pdata$?OnShellcodeReadMap@CMainWnd@@AEAAXXZ 000000014002a290     MainWnd.obj
 0004:0000129c       $pdata$?dtor$4@?0??OnShellcodeReadMap@CMainWnd@@AEAAXXZ@4HA 000000014002a29c     MainWnd.obj
 0004:000012a8       $pdata$?OnShellcodeLoadMapFunsPath@CMainWnd@@AEAAXXZ 000000014002a2a8     MainWnd.obj
 0004:000012b4       $pdata$?OnShellcodeDump@CMainWnd@@AEAAXXZ 000000014002a2b4     MainWnd.obj
 0004:000012c0       $pdata$?OnShellcodeInjectExec@CMainWnd@@AEAAXXZ 000000014002a2c0     MainWnd.obj
 0004:000012cc       $pdata$?OnApiCopyHash@CMainWnd@@AEAAXXZ 000000014002a2cc     MainWnd.obj
 0004:000012d8       $pdata$?OnStringCopyDest@CMainWnd@@AEAAXXZ 000000014002a2d8     MainWnd.obj
 0004:000012e4       $pdata$?OnMultStr2DowrdArry@CMainWnd@@AEAAXXZ 000000014002a2e4     MainWnd.obj
 0004:000012f0       $pdata$?OnWideStr2DwordArry@CMainWnd@@AEAAXXZ 000000014002a2f0     MainWnd.obj
 0004:000012fc       $pdata$?OnCalcWinApiHash@CMainWnd@@AEAAXXZ 000000014002a2fc     MainWnd.obj
 0004:00001308       $pdata$?OnSelectChanged@CMainWnd@@AEAAXAEAUtagTNotifyUI@DuiLib@@@Z 000000014002a308     MainWnd.obj
 0004:00001314       $pdata$?Copy2Clipboard@CMainWnd@@AEAAXPEAEKK@Z 000000014002a314     MainWnd.obj
 0004:00001320       $pdata$?OnFinalMessage@CMainWnd@@EEAAXPEAUHWND__@@@Z 000000014002a320     MainWnd.obj
 0004:0000132c       $pdata$?HandleCustomMessage@CMainWnd@@UEAA_JI_K_JAEAH@Z 000000014002a32c     MainWnd.obj
 0004:00001338       $pdata$?OnClick@CMainWnd@@UEAAXAEAUtagTNotifyUI@DuiLib@@@Z 000000014002a338     MainWnd.obj
 0004:00001344       $pdata$?Notify@CMainWnd@@UEAAXAEAUtagTNotifyUI@DuiLib@@@Z 000000014002a344     MainWnd.obj
 0004:00001350       $pdata$?InitWindow@CMainWnd@@UEAAXXZ 000000014002a350     MainWnd.obj
 0004:0000135c       $pdata$?GetSkinFolder@CMainWnd@@UEAA?AVCDuiString@DuiLib@@XZ 000000014002a35c     MainWnd.obj
 0004:00001368       $pdata$?GetSkinFile@CMainWnd@@UEAA?AVCDuiString@DuiLib@@XZ 000000014002a368     MainWnd.obj
 0004:00001374       $pdata$??_GCMainWnd@@UEAAPEAXI@Z 000000014002a374     MainWnd.obj
 0004:00001380       $pdata$??0CMainWnd@@QEAA@XZ 000000014002a380     MainWnd.obj
 0004:0000138c       $pdata$?GetClassStyle@CMainWnd@@UEBAIXZ 000000014002a38c     MainWnd.obj
 0004:00001398       $pdata$scx_MsgBox          000000014002a398     scx.obj
 0004:000013a4       $pdata$Shellcode           000000014002a3a4     scx.obj
 0004:000013b0       $pdata$scx_GetCPUPtr       000000014002a3b0     ScxGadgets.obj
 0004:000013bc       $pdata$?ReadBufferFromFile@@YAPEAEPEA_WPEAK@Z 000000014002a3bc     SCXHelper.obj
 0004:000013c8       $pdata$?BrowseFile@@YAHPEA_W0@Z 000000014002a3c8     SCXHelper.obj
 0004:000013d4       $pdata$scx_GetProcAddressWithHash 000000014002a3d4     GetProcAddressWithHash.obj
 0004:000013e0       $pdata$__RTDynamicCast     000000014002a3e0     libvcruntime:rtti.obj
 0004:000013ec       $pdata$__RTDynamicCast$filt$0 000000014002a3ec     libvcruntime:rtti.obj
 0004:000013f8       $pdata$??0bad_cast@std@@QEAA@AEBV01@@Z 000000014002a3f8     libvcruntime:rtti.obj
 0004:00001404       $pdata$??0bad_typeid@std@@QEAA@AEBV01@@Z 000000014002a404     libvcruntime:rtti.obj
 0004:00001410       $pdata$??0__non_rtti_object@std@@QEAA@AEBV01@@Z 000000014002a410     libvcruntime:rtti.obj
 0004:0000141c       $pdata$?FindSITargetTypeInstance@@YAPEBU_s_RTTIBaseClassDescriptor@@PEBU_s_RTTICompleteObjectLocator@@PEAUTypeDescriptor@@1_K@Z 000000014002a41c     libvcruntime:rtti.obj
 0004:00001428       $pdata$?FindMITargetTypeInstance@@YAPEBU_s_RTTIBaseClassDescriptor@@PEAXPEBU_s_RTTICompleteObjectLocator@@PEAUTypeDescriptor@@_J2_K@Z 000000014002a428     libvcruntime:rtti.obj
 0004:00001434       $pdata$?FindVITargetTypeInstance@@YAPEBU_s_RTTIBaseClassDescriptor@@PEAXPEBU_s_RTTICompleteObjectLocator@@PEAUTypeDescriptor@@_J2_K@Z 000000014002a434     libvcruntime:rtti.obj
 0005:000002c0       $R000000                   000000014002b2c0     DUI_ShellcodeX.res
 0005:00002868       $R0025A8                   000000014002d868     DUI_ShellcodeX.res
 0005:00002880       $R0025C0                   000000014002d880     DUI_ShellcodeX.res
 0005:00003928       $R003668                   000000014002e928     DUI_ShellcodeX.res
 0005:00003940       $R003680                   000000014002e940     DUI_ShellcodeX.res
 0005:00003990       $R0036D0                   000000014002e990     DUI_ShellcodeX.res
 0005:000039a0       $R0036E0                   000000014002e9a0     DUI_ShellcodeX.res
 0005:00003ad8       $R003818                   000000014002ead8     DUI_ShellcodeX.res
 0005:00003b70       $R0038B0                   000000014002eb70     DUI_ShellcodeX.res
 0005:00003bc8       $R003908                   000000014002ebc8     DUI_ShellcodeX.res
